
bomb:     file format elf64-x86-64


Disassembly of section .init:

0000000000400ae8 <_init>:
  400ae8:	48 83 ec 08          	sub    $0x8,%rsp
  400aec:	48 8b 05 05 35 20 00 	mov    0x203505(%rip),%rax        # 603ff8 <_DYNAMIC+0x1d0>
  400af3:	48 85 c0             	test   %rax,%rax
  400af6:	74 05                	je     400afd <_init+0x15>
  400af8:	e8 d3 01 00 00       	callq  400cd0 <socket@plt+0x10>
  400afd:	48 83 c4 08          	add    $0x8,%rsp
  400b01:	c3                   	retq   

Disassembly of section .plt:

0000000000400b10 <getenv@plt-0x10>:
  400b10:	ff 35 f2 34 20 00    	pushq  0x2034f2(%rip)        # 604008 <_GLOBAL_OFFSET_TABLE_+0x8>
  400b16:	ff 25 f4 34 20 00    	jmpq   *0x2034f4(%rip)        # 604010 <_GLOBAL_OFFSET_TABLE_+0x10>
  400b1c:	0f 1f 40 00          	nopl   0x0(%rax)

0000000000400b20 <getenv@plt>:
  400b20:	ff 25 f2 34 20 00    	jmpq   *0x2034f2(%rip)        # 604018 <_GLOBAL_OFFSET_TABLE_+0x18>
  400b26:	68 00 00 00 00       	pushq  $0x0
  400b2b:	e9 e0 ff ff ff       	jmpq   400b10 <_init+0x28>

0000000000400b30 <strcasecmp@plt>:
  400b30:	ff 25 ea 34 20 00    	jmpq   *0x2034ea(%rip)        # 604020 <_GLOBAL_OFFSET_TABLE_+0x20>
  400b36:	68 01 00 00 00       	pushq  $0x1
  400b3b:	e9 d0 ff ff ff       	jmpq   400b10 <_init+0x28>

0000000000400b40 <__errno_location@plt>:
  400b40:	ff 25 e2 34 20 00    	jmpq   *0x2034e2(%rip)        # 604028 <_GLOBAL_OFFSET_TABLE_+0x28>
  400b46:	68 02 00 00 00       	pushq  $0x2
  400b4b:	e9 c0 ff ff ff       	jmpq   400b10 <_init+0x28>

0000000000400b50 <strcpy@plt>:
  400b50:	ff 25 da 34 20 00    	jmpq   *0x2034da(%rip)        # 604030 <_GLOBAL_OFFSET_TABLE_+0x30>
  400b56:	68 03 00 00 00       	pushq  $0x3
  400b5b:	e9 b0 ff ff ff       	jmpq   400b10 <_init+0x28>

0000000000400b60 <puts@plt>:
  400b60:	ff 25 d2 34 20 00    	jmpq   *0x2034d2(%rip)        # 604038 <_GLOBAL_OFFSET_TABLE_+0x38>
  400b66:	68 04 00 00 00       	pushq  $0x4
  400b6b:	e9 a0 ff ff ff       	jmpq   400b10 <_init+0x28>

0000000000400b70 <write@plt>:
  400b70:	ff 25 ca 34 20 00    	jmpq   *0x2034ca(%rip)        # 604040 <_GLOBAL_OFFSET_TABLE_+0x40>
  400b76:	68 05 00 00 00       	pushq  $0x5
  400b7b:	e9 90 ff ff ff       	jmpq   400b10 <_init+0x28>

0000000000400b80 <printf@plt>:
  400b80:	ff 25 c2 34 20 00    	jmpq   *0x2034c2(%rip)        # 604048 <_GLOBAL_OFFSET_TABLE_+0x48>
  400b86:	68 06 00 00 00       	pushq  $0x6
  400b8b:	e9 80 ff ff ff       	jmpq   400b10 <_init+0x28>

0000000000400b90 <alarm@plt>:
  400b90:	ff 25 ba 34 20 00    	jmpq   *0x2034ba(%rip)        # 604050 <_GLOBAL_OFFSET_TABLE_+0x50>
  400b96:	68 07 00 00 00       	pushq  $0x7
  400b9b:	e9 70 ff ff ff       	jmpq   400b10 <_init+0x28>

0000000000400ba0 <close@plt>:
  400ba0:	ff 25 b2 34 20 00    	jmpq   *0x2034b2(%rip)        # 604058 <_GLOBAL_OFFSET_TABLE_+0x58>
  400ba6:	68 08 00 00 00       	pushq  $0x8
  400bab:	e9 60 ff ff ff       	jmpq   400b10 <_init+0x28>

0000000000400bb0 <read@plt>:
  400bb0:	ff 25 aa 34 20 00    	jmpq   *0x2034aa(%rip)        # 604060 <_GLOBAL_OFFSET_TABLE_+0x60>
  400bb6:	68 09 00 00 00       	pushq  $0x9
  400bbb:	e9 50 ff ff ff       	jmpq   400b10 <_init+0x28>

0000000000400bc0 <__libc_start_main@plt>:
  400bc0:	ff 25 a2 34 20 00    	jmpq   *0x2034a2(%rip)        # 604068 <_GLOBAL_OFFSET_TABLE_+0x68>
  400bc6:	68 0a 00 00 00       	pushq  $0xa
  400bcb:	e9 40 ff ff ff       	jmpq   400b10 <_init+0x28>

0000000000400bd0 <fgets@plt>:
  400bd0:	ff 25 9a 34 20 00    	jmpq   *0x20349a(%rip)        # 604070 <_GLOBAL_OFFSET_TABLE_+0x70>
  400bd6:	68 0b 00 00 00       	pushq  $0xb
  400bdb:	e9 30 ff ff ff       	jmpq   400b10 <_init+0x28>

0000000000400be0 <signal@plt>:
  400be0:	ff 25 92 34 20 00    	jmpq   *0x203492(%rip)        # 604078 <_GLOBAL_OFFSET_TABLE_+0x78>
  400be6:	68 0c 00 00 00       	pushq  $0xc
  400beb:	e9 20 ff ff ff       	jmpq   400b10 <_init+0x28>

0000000000400bf0 <gethostbyname@plt>:
  400bf0:	ff 25 8a 34 20 00    	jmpq   *0x20348a(%rip)        # 604080 <_GLOBAL_OFFSET_TABLE_+0x80>
  400bf6:	68 0d 00 00 00       	pushq  $0xd
  400bfb:	e9 10 ff ff ff       	jmpq   400b10 <_init+0x28>

0000000000400c00 <fprintf@plt>:
  400c00:	ff 25 82 34 20 00    	jmpq   *0x203482(%rip)        # 604088 <_GLOBAL_OFFSET_TABLE_+0x88>
  400c06:	68 0e 00 00 00       	pushq  $0xe
  400c0b:	e9 00 ff ff ff       	jmpq   400b10 <_init+0x28>

0000000000400c10 <strtol@plt>:
  400c10:	ff 25 7a 34 20 00    	jmpq   *0x20347a(%rip)        # 604090 <_GLOBAL_OFFSET_TABLE_+0x90>
  400c16:	68 0f 00 00 00       	pushq  $0xf
  400c1b:	e9 f0 fe ff ff       	jmpq   400b10 <_init+0x28>

0000000000400c20 <fflush@plt>:
  400c20:	ff 25 72 34 20 00    	jmpq   *0x203472(%rip)        # 604098 <_GLOBAL_OFFSET_TABLE_+0x98>
  400c26:	68 10 00 00 00       	pushq  $0x10
  400c2b:	e9 e0 fe ff ff       	jmpq   400b10 <_init+0x28>

0000000000400c30 <__isoc99_sscanf@plt>:
  400c30:	ff 25 6a 34 20 00    	jmpq   *0x20346a(%rip)        # 6040a0 <_GLOBAL_OFFSET_TABLE_+0xa0>
  400c36:	68 11 00 00 00       	pushq  $0x11
  400c3b:	e9 d0 fe ff ff       	jmpq   400b10 <_init+0x28>

0000000000400c40 <memmove@plt>:
  400c40:	ff 25 62 34 20 00    	jmpq   *0x203462(%rip)        # 6040a8 <_GLOBAL_OFFSET_TABLE_+0xa8>
  400c46:	68 12 00 00 00       	pushq  $0x12
  400c4b:	e9 c0 fe ff ff       	jmpq   400b10 <_init+0x28>

0000000000400c50 <fopen@plt>:
  400c50:	ff 25 5a 34 20 00    	jmpq   *0x20345a(%rip)        # 6040b0 <_GLOBAL_OFFSET_TABLE_+0xb0>
  400c56:	68 13 00 00 00       	pushq  $0x13
  400c5b:	e9 b0 fe ff ff       	jmpq   400b10 <_init+0x28>

0000000000400c60 <gethostname@plt>:
  400c60:	ff 25 52 34 20 00    	jmpq   *0x203452(%rip)        # 6040b8 <_GLOBAL_OFFSET_TABLE_+0xb8>
  400c66:	68 14 00 00 00       	pushq  $0x14
  400c6b:	e9 a0 fe ff ff       	jmpq   400b10 <_init+0x28>

0000000000400c70 <sprintf@plt>:
  400c70:	ff 25 4a 34 20 00    	jmpq   *0x20344a(%rip)        # 6040c0 <_GLOBAL_OFFSET_TABLE_+0xc0>
  400c76:	68 15 00 00 00       	pushq  $0x15
  400c7b:	e9 90 fe ff ff       	jmpq   400b10 <_init+0x28>

0000000000400c80 <exit@plt>:
  400c80:	ff 25 42 34 20 00    	jmpq   *0x203442(%rip)        # 6040c8 <_GLOBAL_OFFSET_TABLE_+0xc8>
  400c86:	68 16 00 00 00       	pushq  $0x16
  400c8b:	e9 80 fe ff ff       	jmpq   400b10 <_init+0x28>

0000000000400c90 <connect@plt>:
  400c90:	ff 25 3a 34 20 00    	jmpq   *0x20343a(%rip)        # 6040d0 <_GLOBAL_OFFSET_TABLE_+0xd0>
  400c96:	68 17 00 00 00       	pushq  $0x17
  400c9b:	e9 70 fe ff ff       	jmpq   400b10 <_init+0x28>

0000000000400ca0 <sleep@plt>:
  400ca0:	ff 25 32 34 20 00    	jmpq   *0x203432(%rip)        # 6040d8 <_GLOBAL_OFFSET_TABLE_+0xd8>
  400ca6:	68 18 00 00 00       	pushq  $0x18
  400cab:	e9 60 fe ff ff       	jmpq   400b10 <_init+0x28>

0000000000400cb0 <__ctype_b_loc@plt>:
  400cb0:	ff 25 2a 34 20 00    	jmpq   *0x20342a(%rip)        # 6040e0 <_GLOBAL_OFFSET_TABLE_+0xe0>
  400cb6:	68 19 00 00 00       	pushq  $0x19
  400cbb:	e9 50 fe ff ff       	jmpq   400b10 <_init+0x28>

0000000000400cc0 <socket@plt>:
  400cc0:	ff 25 22 34 20 00    	jmpq   *0x203422(%rip)        # 6040e8 <_GLOBAL_OFFSET_TABLE_+0xe8>
  400cc6:	68 1a 00 00 00       	pushq  $0x1a
  400ccb:	e9 40 fe ff ff       	jmpq   400b10 <_init+0x28>

Disassembly of section .plt.got:

0000000000400cd0 <.plt.got>:
  400cd0:	ff 25 22 33 20 00    	jmpq   *0x203322(%rip)        # 603ff8 <_DYNAMIC+0x1d0>
  400cd6:	66 90                	xchg   %ax,%ax

Disassembly of section .text:

0000000000400ce0 <_start>:
  400ce0:	31 ed                	xor    %ebp,%ebp
  400ce2:	49 89 d1             	mov    %rdx,%r9
  400ce5:	5e                   	pop    %rsi
  400ce6:	48 89 e2             	mov    %rsp,%rdx
  400ce9:	48 83 e4 f0          	and    $0xfffffffffffffff0,%rsp
  400ced:	50                   	push   %rax
  400cee:	54                   	push   %rsp
  400cef:	49 c7 c0 10 29 40 00 	mov    $0x402910,%r8
  400cf6:	48 c7 c1 a0 28 40 00 	mov    $0x4028a0,%rcx
  400cfd:	48 c7 c7 b2 0d 40 00 	mov    $0x400db2,%rdi
  400d04:	e8 b7 fe ff ff       	callq  400bc0 <__libc_start_main@plt>
  400d09:	f4                   	hlt    
  400d0a:	66 0f 1f 44 00 00    	nopw   0x0(%rax,%rax,1)

0000000000400d10 <deregister_tm_clones>:
  400d10:	b8 80 47 60 00       	mov    $0x604780,%eax
  400d15:	48 3d 80 47 60 00    	cmp    $0x604780,%rax
  400d1b:	74 13                	je     400d30 <deregister_tm_clones+0x20>
  400d1d:	b8 00 00 00 00       	mov    $0x0,%eax
  400d22:	48 85 c0             	test   %rax,%rax
  400d25:	74 09                	je     400d30 <deregister_tm_clones+0x20>
  400d27:	bf 80 47 60 00       	mov    $0x604780,%edi
  400d2c:	ff e0                	jmpq   *%rax
  400d2e:	66 90                	xchg   %ax,%ax
  400d30:	c3                   	retq   
  400d31:	0f 1f 44 00 00       	nopl   0x0(%rax,%rax,1)
  400d36:	66 2e 0f 1f 84 00 00 	nopw   %cs:0x0(%rax,%rax,1)
  400d3d:	00 00 00 

0000000000400d40 <register_tm_clones>:
  400d40:	be 80 47 60 00       	mov    $0x604780,%esi
  400d45:	48 81 ee 80 47 60 00 	sub    $0x604780,%rsi
  400d4c:	48 c1 fe 03          	sar    $0x3,%rsi
  400d50:	48 89 f0             	mov    %rsi,%rax
  400d53:	48 c1 e8 3f          	shr    $0x3f,%rax
  400d57:	48 01 c6             	add    %rax,%rsi
  400d5a:	48 d1 fe             	sar    %rsi
  400d5d:	74 11                	je     400d70 <register_tm_clones+0x30>
  400d5f:	b8 00 00 00 00       	mov    $0x0,%eax
  400d64:	48 85 c0             	test   %rax,%rax
  400d67:	74 07                	je     400d70 <register_tm_clones+0x30>
  400d69:	bf 80 47 60 00       	mov    $0x604780,%edi
  400d6e:	ff e0                	jmpq   *%rax
  400d70:	c3                   	retq   
  400d71:	0f 1f 44 00 00       	nopl   0x0(%rax,%rax,1)
  400d76:	66 2e 0f 1f 84 00 00 	nopw   %cs:0x0(%rax,%rax,1)
  400d7d:	00 00 00 

0000000000400d80 <__do_global_dtors_aux>:
  400d80:	80 3d 11 3a 20 00 00 	cmpb   $0x0,0x203a11(%rip)        # 604798 <completed.7243>
  400d87:	75 17                	jne    400da0 <__do_global_dtors_aux+0x20>
  400d89:	55                   	push   %rbp
  400d8a:	48 89 e5             	mov    %rsp,%rbp
  400d8d:	e8 7e ff ff ff       	callq  400d10 <deregister_tm_clones>
  400d92:	c6 05 ff 39 20 00 01 	movb   $0x1,0x2039ff(%rip)        # 604798 <completed.7243>
  400d99:	5d                   	pop    %rbp
  400d9a:	c3                   	retq   
  400d9b:	0f 1f 44 00 00       	nopl   0x0(%rax,%rax,1)
  400da0:	c3                   	retq   
  400da1:	0f 1f 44 00 00       	nopl   0x0(%rax,%rax,1)
  400da6:	66 2e 0f 1f 84 00 00 	nopw   %cs:0x0(%rax,%rax,1)
  400dad:	00 00 00 

0000000000400db0 <frame_dummy>:
  400db0:	eb 8e                	jmp    400d40 <register_tm_clones>

0000000000400db2 <main>:
  400db2:	55                   	push   %rbp
  400db3:	53                   	push   %rbx
  400db4:	48 83 ec 08          	sub    $0x8,%rsp
  400db8:	89 fb                	mov    %edi,%ebx
  400dba:	83 ff 01             	cmp    $0x1,%edi
  400dbd:	0f 84 e5 00 00 00    	je     400ea8 <main+0xf6>
  400dc3:	48 89 f5             	mov    %rsi,%rbp
  400dc6:	83 ff 02             	cmp    $0x2,%edi
  400dc9:	0f 85 08 01 00 00    	jne    400ed7 <main+0x125>
  400dcf:	48 8b 7e 08          	mov    0x8(%rsi),%rdi
  400dd3:	be 24 29 40 00       	mov    $0x402924,%esi
  400dd8:	e8 73 fe ff ff       	callq  400c50 <fopen@plt>
  400ddd:	48 89 05 c4 39 20 00 	mov    %rax,0x2039c4(%rip)        # 6047a8 <infile>
  400de4:	48 85 c0             	test   %rax,%rax
  400de7:	0f 84 ce 00 00 00    	je     400ebb <main+0x109>
  400ded:	e8 da 05 00 00       	callq  4013cc <initialize_bomb>
  400df2:	89 df                	mov    %ebx,%edi
  400df4:	b8 00 00 00 00       	mov    $0x0,%eax
  400df9:	e8 83 06 00 00       	callq  401481 <welcome_message>
  400dfe:	e8 5c 0e 00 00       	callq  401c5f <read_line>
  400e03:	48 89 c7             	mov    %rax,%rdi
  400e06:	e8 e8 00 00 00       	callq  400ef3 <phase_1>
  400e0b:	e8 2a 08 00 00       	callq  40163a <phase_defused>
  400e10:	bf 60 29 40 00       	mov    $0x402960,%edi
  400e15:	e8 46 fd ff ff       	callq  400b60 <puts@plt>
  400e1a:	e8 40 0e 00 00       	callq  401c5f <read_line>
  400e1f:	48 89 c7             	mov    %rax,%rdi
  400e22:	e8 eb 00 00 00       	callq  400f12 <phase_2>
  400e27:	e8 0e 08 00 00       	callq  40163a <phase_defused>
  400e2c:	bf a0 29 40 00       	mov    $0x4029a0,%edi
  400e31:	e8 2a fd ff ff       	callq  400b60 <puts@plt>
  400e36:	e8 24 0e 00 00       	callq  401c5f <read_line>
  400e3b:	48 89 c7             	mov    %rax,%rdi
  400e3e:	e8 74 01 00 00       	callq  400fb7 <phase_3>
  400e43:	e8 f2 07 00 00       	callq  40163a <phase_defused>
  400e48:	bf c8 29 40 00       	mov    $0x4029c8,%edi
  400e4d:	e8 0e fd ff ff       	callq  400b60 <puts@plt>
  400e52:	e8 08 0e 00 00       	callq  401c5f <read_line>
  400e57:	48 89 c7             	mov    %rax,%rdi
  400e5a:	e8 fc 01 00 00       	callq  40105b <phase_4>
  400e5f:	e8 d6 07 00 00       	callq  40163a <phase_defused>
  400e64:	bf f0 29 40 00       	mov    $0x4029f0,%edi
  400e69:	e8 f2 fc ff ff       	callq  400b60 <puts@plt>
  400e6e:	e8 ec 0d 00 00       	callq  401c5f <read_line>
  400e73:	48 89 c7             	mov    %rax,%rdi
  400e76:	e8 31 02 00 00       	callq  4010ac <phase_5>
  400e7b:	e8 ba 07 00 00       	callq  40163a <phase_defused>
  400e80:	bf 28 2a 40 00       	mov    $0x402a28,%edi
  400e85:	e8 d6 fc ff ff       	callq  400b60 <puts@plt>
  400e8a:	e8 d0 0d 00 00       	callq  401c5f <read_line>
  400e8f:	48 89 c7             	mov    %rax,%rdi
  400e92:	e8 74 02 00 00       	callq  40110b <phase_6>
  400e97:	e8 9e 07 00 00       	callq  40163a <phase_defused>
  400e9c:	b8 00 00 00 00       	mov    $0x0,%eax
  400ea1:	48 83 c4 08          	add    $0x8,%rsp
  400ea5:	5b                   	pop    %rbx
  400ea6:	5d                   	pop    %rbp
  400ea7:	c3                   	retq   
  400ea8:	48 8b 05 d9 38 20 00 	mov    0x2038d9(%rip),%rax        # 604788 <stdin@@GLIBC_2.2.5>
  400eaf:	48 89 05 f2 38 20 00 	mov    %rax,0x2038f2(%rip)        # 6047a8 <infile>
  400eb6:	e9 32 ff ff ff       	jmpq   400ded <main+0x3b>
  400ebb:	48 8b 55 08          	mov    0x8(%rbp),%rdx
  400ebf:	48 8b 75 00          	mov    0x0(%rbp),%rsi
  400ec3:	bf 26 29 40 00       	mov    $0x402926,%edi
  400ec8:	e8 b3 fc ff ff       	callq  400b80 <printf@plt>
  400ecd:	bf 08 00 00 00       	mov    $0x8,%edi
  400ed2:	e8 a9 fd ff ff       	callq  400c80 <exit@plt>
  400ed7:	48 8b 36             	mov    (%rsi),%rsi
  400eda:	bf 43 29 40 00       	mov    $0x402943,%edi
  400edf:	b8 00 00 00 00       	mov    $0x0,%eax
  400ee4:	e8 97 fc ff ff       	callq  400b80 <printf@plt>
  400ee9:	bf 08 00 00 00       	mov    $0x8,%edi
  400eee:	e8 8d fd ff ff       	callq  400c80 <exit@plt>

0000000000400ef3 <phase_1>:
  400ef3:	53                   	push   %rbx
  400ef4:	48 89 fb             	mov    %rdi,%rbx
  400ef7:	80 7f 01 00          	cmpb   $0x0,0x1(%rdi)
  400efb:	75 07                	jne    400f04 <phase_1+0x11>
  400efd:	80 3b 61             	cmpb   $0x61,(%rbx)
  400f00:	75 09                	jne    400f0b <phase_1+0x18>
  400f02:	5b                   	pop    %rbx
  400f03:	c3                   	retq   
  400f04:	e8 6c 07 00 00       	callq  401675 <explode_bomb>
  400f09:	eb f2                	jmp    400efd <phase_1+0xa>
  400f0b:	e8 65 07 00 00       	callq  401675 <explode_bomb>
  400f10:	eb f0                	jmp    400f02 <phase_1+0xf>

0000000000400f12 <phase_2>:
  400f12:	41 54                	push   %r12
  400f14:	55                   	push   %rbp
  400f15:	53                   	push   %rbx
  400f16:	48 83 ec 20          	sub    $0x20,%rsp
  400f1a:	48 89 e6             	mov    %rsp,%rsi
  400f1d:	e8 fe 0c 00 00       	callq  401c20 <read_six_numbers>
  400f22:	83 3c 24 00          	cmpl   $0x0,(%rsp)
  400f26:	78 0a                	js     400f32 <phase_2+0x20>
  400f28:	48 89 e3             	mov    %rsp,%rbx
  400f2b:	bd 01 00 00 00       	mov    $0x1,%ebp
  400f30:	eb 23                	jmp    400f55 <phase_2+0x43>
  400f32:	e8 3e 07 00 00       	callq  401675 <explode_bomb>
  400f37:	eb ef                	jmp    400f28 <phase_2+0x16>
  400f39:	e8 37 07 00 00       	callq  401675 <explode_bomb>
  400f3e:	41 8b 44 24 04       	mov    0x4(%r12),%eax
  400f43:	89 05 53 38 20 00    	mov    %eax,0x203853(%rip)        # 60479c <trap>
  400f49:	83 c5 01             	add    $0x1,%ebp
  400f4c:	48 83 c3 04          	add    $0x4,%rbx
  400f50:	83 fd 06             	cmp    $0x6,%ebp
  400f53:	74 0e                	je     400f63 <phase_2+0x51>
  400f55:	49 89 dc             	mov    %rbx,%r12
  400f58:	89 e8                	mov    %ebp,%eax
  400f5a:	03 03                	add    (%rbx),%eax
  400f5c:	39 43 04             	cmp    %eax,0x4(%rbx)
  400f5f:	74 dd                	je     400f3e <phase_2+0x2c>
  400f61:	eb d6                	jmp    400f39 <phase_2+0x27>
  400f63:	48 83 c4 20          	add    $0x20,%rsp
  400f67:	5b                   	pop    %rbx
  400f68:	5d                   	pop    %rbp
  400f69:	41 5c                	pop    %r12
  400f6b:	c3                   	retq   

0000000000400f6c <func_switch>:
  400f6c:	83 ff 07             	cmp    $0x7,%edi
  400f6f:	77 2d                	ja     400f9e <func_switch+0x32>
  400f71:	89 ff                	mov    %edi,%edi
  400f73:	ff 24 fd 60 2a 40 00 	jmpq   *0x402a60(,%rdi,8)
  400f7a:	b8 aa 00 00 00       	mov    $0xaa,%eax
  400f7f:	c3                   	retq   
  400f80:	b8 db 00 00 00       	mov    $0xdb,%eax
  400f85:	c3                   	retq   
  400f86:	b8 c8 00 00 00       	mov    $0xc8,%eax
  400f8b:	c3                   	retq   
  400f8c:	b8 c6 01 00 00       	mov    $0x1c6,%eax
  400f91:	c3                   	retq   
  400f92:	b8 ec 02 00 00       	mov    $0x2ec,%eax
  400f97:	c3                   	retq   
  400f98:	b8 66 02 00 00       	mov    $0x266,%eax
  400f9d:	c3                   	retq   
  400f9e:	48 83 ec 08          	sub    $0x8,%rsp
  400fa2:	e8 ce 06 00 00       	callq  401675 <explode_bomb>
  400fa7:	b8 00 00 00 00       	mov    $0x0,%eax
  400fac:	48 83 c4 08          	add    $0x8,%rsp
  400fb0:	c3                   	retq   
  400fb1:	b8 4a 03 00 00       	mov    $0x34a,%eax
  400fb6:	c3                   	retq   

0000000000400fb7 <phase_3>:
  400fb7:	53                   	push   %rbx
  400fb8:	48 83 ec 10          	sub    $0x10,%rsp
  400fbc:	c7 44 24 0c 00 00 00 	movl   $0x0,0xc(%rsp)
  400fc3:	00 
  400fc4:	c7 44 24 08 00 00 00 	movl   $0x0,0x8(%rsp)
  400fcb:	00 
  400fcc:	48 8d 4c 24 08       	lea    0x8(%rsp),%rcx
  400fd1:	48 8d 54 24 0c       	lea    0xc(%rsp),%rdx
  400fd6:	be 89 31 40 00       	mov    $0x403189,%esi
  400fdb:	b8 00 00 00 00       	mov    $0x0,%eax
  400fe0:	e8 4b fc ff ff       	callq  400c30 <__isoc99_sscanf@plt>
  400fe5:	83 f8 01             	cmp    $0x1,%eax
  400fe8:	7e 0a                	jle    400ff4 <phase_3+0x3d>
  400fea:	8b 44 24 08          	mov    0x8(%rsp),%eax
  400fee:	39 44 24 0c          	cmp    %eax,0xc(%rsp)
  400ff2:	75 05                	jne    400ff9 <phase_3+0x42>
  400ff4:	e8 7c 06 00 00       	callq  401675 <explode_bomb>
  400ff9:	8b 7c 24 0c          	mov    0xc(%rsp),%edi
  400ffd:	e8 6a ff ff ff       	callq  400f6c <func_switch>
  401002:	89 c3                	mov    %eax,%ebx
  401004:	8b 7c 24 08          	mov    0x8(%rsp),%edi
  401008:	e8 5f ff ff ff       	callq  400f6c <func_switch>
  40100d:	39 c3                	cmp    %eax,%ebx
  40100f:	75 06                	jne    401017 <phase_3+0x60>
  401011:	48 83 c4 10          	add    $0x10,%rsp
  401015:	5b                   	pop    %rbx
  401016:	c3                   	retq   
  401017:	e8 59 06 00 00       	callq  401675 <explode_bomb>
  40101c:	eb f3                	jmp    401011 <phase_3+0x5a>

000000000040101e <func4>:
  40101e:	48 83 ec 08          	sub    $0x8,%rsp
  401022:	89 d0                	mov    %edx,%eax
  401024:	29 f0                	sub    %esi,%eax
  401026:	89 c1                	mov    %eax,%ecx
  401028:	c1 e9 1f             	shr    $0x1f,%ecx
  40102b:	01 c1                	add    %eax,%ecx
  40102d:	d1 f9                	sar    %ecx
  40102f:	01 f1                	add    %esi,%ecx
  401031:	39 f9                	cmp    %edi,%ecx
  401033:	7f 0c                	jg     401041 <func4+0x23>
  401035:	b8 00 00 00 00       	mov    $0x0,%eax
  40103a:	7c 11                	jl     40104d <func4+0x2f>
  40103c:	48 83 c4 08          	add    $0x8,%rsp
  401040:	c3                   	retq   
  401041:	8d 51 ff             	lea    -0x1(%rcx),%edx
  401044:	e8 d5 ff ff ff       	callq  40101e <func4>
  401049:	01 c0                	add    %eax,%eax
  40104b:	eb ef                	jmp    40103c <func4+0x1e>
  40104d:	8d 71 01             	lea    0x1(%rcx),%esi
  401050:	e8 c9 ff ff ff       	callq  40101e <func4>
  401055:	8d 44 00 01          	lea    0x1(%rax,%rax,1),%eax
  401059:	eb e1                	jmp    40103c <func4+0x1e>

000000000040105b <phase_4>:
  40105b:	48 83 ec 18          	sub    $0x18,%rsp
  40105f:	48 8d 4c 24 08       	lea    0x8(%rsp),%rcx
  401064:	48 8d 54 24 0c       	lea    0xc(%rsp),%rdx
  401069:	be 89 31 40 00       	mov    $0x403189,%esi
  40106e:	b8 00 00 00 00       	mov    $0x0,%eax
  401073:	e8 b8 fb ff ff       	callq  400c30 <__isoc99_sscanf@plt>
  401078:	83 f8 02             	cmp    $0x2,%eax
  40107b:	75 07                	jne    401084 <phase_4+0x29>
  40107d:	83 7c 24 0c 0e       	cmpl   $0xe,0xc(%rsp)
  401082:	76 05                	jbe    401089 <phase_4+0x2e>
  401084:	e8 ec 05 00 00       	callq  401675 <explode_bomb>
  401089:	ba 0e 00 00 00       	mov    $0xe,%edx
  40108e:	be 00 00 00 00       	mov    $0x0,%esi
  401093:	8b 7c 24 0c          	mov    0xc(%rsp),%edi
  401097:	e8 82 ff ff ff       	callq  40101e <func4>
  40109c:	0b 44 24 08          	or     0x8(%rsp),%eax
  4010a0:	74 05                	je     4010a7 <phase_4+0x4c>
  4010a2:	e8 ce 05 00 00       	callq  401675 <explode_bomb>
  4010a7:	48 83 c4 18          	add    $0x18,%rsp
  4010ab:	c3                   	retq   

00000000004010ac <phase_5>:
  4010ac:	53                   	push   %rbx
  4010ad:	48 83 ec 10          	sub    $0x10,%rsp
  4010b1:	48 89 fb             	mov    %rdi,%rbx
  4010b4:	e8 92 02 00 00       	callq  40134b <string_length>
  4010b9:	83 f8 06             	cmp    $0x6,%eax
  4010bc:	75 3f                	jne    4010fd <phase_5+0x51>
  4010be:	b8 00 00 00 00       	mov    $0x0,%eax
  4010c3:	0f b6 14 03          	movzbl (%rbx,%rax,1),%edx
  4010c7:	83 e2 0f             	and    $0xf,%edx
  4010ca:	0f b6 92 a0 2a 40 00 	movzbl 0x402aa0(%rdx),%edx
  4010d1:	88 54 04 09          	mov    %dl,0x9(%rsp,%rax,1)
  4010d5:	48 83 c0 01          	add    $0x1,%rax
  4010d9:	48 83 f8 06          	cmp    $0x6,%rax
  4010dd:	75 e4                	jne    4010c3 <phase_5+0x17>
  4010df:	c6 44 24 0f 00       	movb   $0x0,0xf(%rsp)
  4010e4:	be b0 2a 40 00       	mov    $0x402ab0,%esi
  4010e9:	48 8d 7c 24 09       	lea    0x9(%rsp),%rdi
  4010ee:	e8 71 02 00 00       	callq  401364 <strings_not_equal>
  4010f3:	85 c0                	test   %eax,%eax
  4010f5:	75 0d                	jne    401104 <phase_5+0x58>
  4010f7:	48 83 c4 10          	add    $0x10,%rsp
  4010fb:	5b                   	pop    %rbx
  4010fc:	c3                   	retq   
  4010fd:	e8 73 05 00 00       	callq  401675 <explode_bomb>
  401102:	eb ba                	jmp    4010be <phase_5+0x12>
  401104:	e8 6c 05 00 00       	callq  401675 <explode_bomb>
  401109:	eb ec                	jmp    4010f7 <phase_5+0x4b>

000000000040110b <phase_6>:
  40110b:	41 57                	push   %r15
  40110d:	41 56                	push   %r14
  40110f:	41 55                	push   %r13
  401111:	41 54                	push   %r12
  401113:	55                   	push   %rbp
  401114:	53                   	push   %rbx
  401115:	48 83 ec 58          	sub    $0x58,%rsp
  401119:	48 8d 74 24 30       	lea    0x30(%rsp),%rsi
  40111e:	e8 fd 0a 00 00       	callq  401c20 <read_six_numbers>
  401123:	4c 8d 6c 24 30       	lea    0x30(%rsp),%r13
  401128:	4d 8d 7d 14          	lea    0x14(%r13),%r15
  40112c:	4d 89 ec             	mov    %r13,%r12
  40112f:	41 be 01 00 00 00    	mov    $0x1,%r14d
  401135:	eb 28                	jmp    40115f <phase_6+0x54>
  401137:	e8 39 05 00 00       	callq  401675 <explode_bomb>
  40113c:	eb 30                	jmp    40116e <phase_6+0x63>
  40113e:	48 83 c3 01          	add    $0x1,%rbx
  401142:	83 fb 05             	cmp    $0x5,%ebx
  401145:	7f 10                	jg     401157 <phase_6+0x4c>
  401147:	8b 44 9c 30          	mov    0x30(%rsp,%rbx,4),%eax
  40114b:	39 45 00             	cmp    %eax,0x0(%rbp)
  40114e:	75 ee                	jne    40113e <phase_6+0x33>
  401150:	e8 20 05 00 00       	callq  401675 <explode_bomb>
  401155:	eb e7                	jmp    40113e <phase_6+0x33>
  401157:	49 83 c6 01          	add    $0x1,%r14
  40115b:	49 83 c4 04          	add    $0x4,%r12
  40115f:	4c 89 e5             	mov    %r12,%rbp
  401162:	41 8b 04 24          	mov    (%r12),%eax
  401166:	83 e8 01             	sub    $0x1,%eax
  401169:	83 f8 05             	cmp    $0x5,%eax
  40116c:	77 c9                	ja     401137 <phase_6+0x2c>
  40116e:	4d 39 fc             	cmp    %r15,%r12
  401171:	74 05                	je     401178 <phase_6+0x6d>
  401173:	4c 89 f3             	mov    %r14,%rbx
  401176:	eb cf                	jmp    401147 <phase_6+0x3c>
  401178:	49 8d 4d 18          	lea    0x18(%r13),%rcx
  40117c:	ba 07 00 00 00       	mov    $0x7,%edx
  401181:	89 d0                	mov    %edx,%eax
  401183:	41 2b 45 00          	sub    0x0(%r13),%eax
  401187:	41 89 45 00          	mov    %eax,0x0(%r13)
  40118b:	49 83 c5 04          	add    $0x4,%r13
  40118f:	4c 39 e9             	cmp    %r13,%rcx
  401192:	75 ed                	jne    401181 <phase_6+0x76>
  401194:	be 00 00 00 00       	mov    $0x0,%esi
  401199:	8b 4c b4 30          	mov    0x30(%rsp,%rsi,4),%ecx
  40119d:	b8 01 00 00 00       	mov    $0x1,%eax
  4011a2:	ba f0 42 60 00       	mov    $0x6042f0,%edx
  4011a7:	83 f9 01             	cmp    $0x1,%ecx
  4011aa:	7e 0b                	jle    4011b7 <phase_6+0xac>
  4011ac:	48 8b 52 08          	mov    0x8(%rdx),%rdx
  4011b0:	83 c0 01             	add    $0x1,%eax
  4011b3:	39 c8                	cmp    %ecx,%eax
  4011b5:	75 f5                	jne    4011ac <phase_6+0xa1>
  4011b7:	48 89 14 f4          	mov    %rdx,(%rsp,%rsi,8)
  4011bb:	48 83 c6 01          	add    $0x1,%rsi
  4011bf:	48 83 fe 06          	cmp    $0x6,%rsi
  4011c3:	75 d4                	jne    401199 <phase_6+0x8e>
  4011c5:	48 8b 1c 24          	mov    (%rsp),%rbx
  4011c9:	48 8b 44 24 08       	mov    0x8(%rsp),%rax
  4011ce:	48 89 43 08          	mov    %rax,0x8(%rbx)
  4011d2:	48 8b 54 24 10       	mov    0x10(%rsp),%rdx
  4011d7:	48 89 50 08          	mov    %rdx,0x8(%rax)
  4011db:	48 8b 44 24 18       	mov    0x18(%rsp),%rax
  4011e0:	48 89 42 08          	mov    %rax,0x8(%rdx)
  4011e4:	48 8b 54 24 20       	mov    0x20(%rsp),%rdx
  4011e9:	48 89 50 08          	mov    %rdx,0x8(%rax)
  4011ed:	48 8b 44 24 28       	mov    0x28(%rsp),%rax
  4011f2:	48 89 42 08          	mov    %rax,0x8(%rdx)
  4011f6:	48 c7 40 08 00 00 00 	movq   $0x0,0x8(%rax)
  4011fd:	00 
  4011fe:	bd 05 00 00 00       	mov    $0x5,%ebp
  401203:	eb 09                	jmp    40120e <phase_6+0x103>
  401205:	48 8b 5b 08          	mov    0x8(%rbx),%rbx
  401209:	83 ed 01             	sub    $0x1,%ebp
  40120c:	74 11                	je     40121f <phase_6+0x114>
  40120e:	48 8b 43 08          	mov    0x8(%rbx),%rax
  401212:	8b 00                	mov    (%rax),%eax
  401214:	39 03                	cmp    %eax,(%rbx)
  401216:	7d ed                	jge    401205 <phase_6+0xfa>
  401218:	e8 58 04 00 00       	callq  401675 <explode_bomb>
  40121d:	eb e6                	jmp    401205 <phase_6+0xfa>
  40121f:	83 3d 76 35 20 00 21 	cmpl   $0x21,0x203576(%rip)        # 60479c <trap>
  401226:	74 0f                	je     401237 <phase_6+0x12c>
  401228:	48 83 c4 58          	add    $0x58,%rsp
  40122c:	5b                   	pop    %rbx
  40122d:	5d                   	pop    %rbp
  40122e:	41 5c                	pop    %r12
  401230:	41 5d                	pop    %r13
  401232:	41 5e                	pop    %r14
  401234:	41 5f                	pop    %r15
  401236:	c3                   	retq   
  401237:	e8 39 04 00 00       	callq  401675 <explode_bomb>
  40123c:	eb ea                	jmp    401228 <phase_6+0x11d>

000000000040123e <fun7>:
  40123e:	48 85 ff             	test   %rdi,%rdi
  401241:	74 32                	je     401275 <fun7+0x37>
  401243:	48 83 ec 08          	sub    $0x8,%rsp
  401247:	8b 17                	mov    (%rdi),%edx
  401249:	39 f2                	cmp    %esi,%edx
  40124b:	7f 0c                	jg     401259 <fun7+0x1b>
  40124d:	b8 00 00 00 00       	mov    $0x0,%eax
  401252:	75 12                	jne    401266 <fun7+0x28>
  401254:	48 83 c4 08          	add    $0x8,%rsp
  401258:	c3                   	retq   
  401259:	48 8b 7f 08          	mov    0x8(%rdi),%rdi
  40125d:	e8 dc ff ff ff       	callq  40123e <fun7>
  401262:	01 c0                	add    %eax,%eax
  401264:	eb ee                	jmp    401254 <fun7+0x16>
  401266:	48 8b 7f 10          	mov    0x10(%rdi),%rdi
  40126a:	e8 cf ff ff ff       	callq  40123e <fun7>
  40126f:	8d 44 00 01          	lea    0x1(%rax,%rax,1),%eax
  401273:	eb df                	jmp    401254 <fun7+0x16>
  401275:	b8 ff ff ff ff       	mov    $0xffffffff,%eax
  40127a:	c3                   	retq   

000000000040127b <s3cret_phase>:
  40127b:	53                   	push   %rbx
  40127c:	e8 de 09 00 00       	callq  401c5f <read_line>
  401281:	ba 0a 00 00 00       	mov    $0xa,%edx
  401286:	be 00 00 00 00       	mov    $0x0,%esi
  40128b:	48 89 c7             	mov    %rax,%rdi
  40128e:	e8 7d f9 ff ff       	callq  400c10 <strtol@plt>
  401293:	48 89 c3             	mov    %rax,%rbx
  401296:	8d 40 ff             	lea    -0x1(%rax),%eax
  401299:	3d e8 03 00 00       	cmp    $0x3e8,%eax
  40129e:	77 2c                	ja     4012cc <s3cret_phase+0x51>
  4012a0:	89 de                	mov    %ebx,%esi
  4012a2:	bf 10 41 60 00       	mov    $0x604110,%edi
  4012a7:	e8 92 ff ff ff       	callq  40123e <fun7>
  4012ac:	83 f8 03             	cmp    $0x3,%eax
  4012af:	75 22                	jne    4012d3 <s3cret_phase+0x58>
  4012b1:	bf b8 2a 40 00       	mov    $0x402ab8,%edi
  4012b6:	e8 a5 f8 ff ff       	callq  400b60 <puts@plt>
  4012bb:	bf e0 2a 40 00       	mov    $0x402ae0,%edi
  4012c0:	e8 9b f8 ff ff       	callq  400b60 <puts@plt>
  4012c5:	e8 70 03 00 00       	callq  40163a <phase_defused>
  4012ca:	5b                   	pop    %rbx
  4012cb:	c3                   	retq   
  4012cc:	e8 a4 03 00 00       	callq  401675 <explode_bomb>
  4012d1:	eb cd                	jmp    4012a0 <s3cret_phase+0x25>
  4012d3:	e8 9d 03 00 00       	callq  401675 <explode_bomb>
  4012d8:	eb d7                	jmp    4012b1 <s3cret_phase+0x36>

00000000004012da <sig_handler>:
  4012da:	48 83 ec 08          	sub    $0x8,%rsp
  4012de:	bf 08 2b 40 00       	mov    $0x402b08,%edi
  4012e3:	e8 78 f8 ff ff       	callq  400b60 <puts@plt>
  4012e8:	bf 03 00 00 00       	mov    $0x3,%edi
  4012ed:	e8 ae f9 ff ff       	callq  400ca0 <sleep@plt>
  4012f2:	bf ab 30 40 00       	mov    $0x4030ab,%edi
  4012f7:	b8 00 00 00 00       	mov    $0x0,%eax
  4012fc:	e8 7f f8 ff ff       	callq  400b80 <printf@plt>
  401301:	48 8b 3d 78 34 20 00 	mov    0x203478(%rip),%rdi        # 604780 <__TMC_END__>
  401308:	e8 13 f9 ff ff       	callq  400c20 <fflush@plt>
  40130d:	bf 01 00 00 00       	mov    $0x1,%edi
  401312:	e8 89 f9 ff ff       	callq  400ca0 <sleep@plt>
  401317:	bf b3 30 40 00       	mov    $0x4030b3,%edi
  40131c:	e8 3f f8 ff ff       	callq  400b60 <puts@plt>
  401321:	bf 10 00 00 00       	mov    $0x10,%edi
  401326:	e8 55 f9 ff ff       	callq  400c80 <exit@plt>

000000000040132b <invalid_phase>:
  40132b:	48 83 ec 08          	sub    $0x8,%rsp
  40132f:	48 89 fe             	mov    %rdi,%rsi
  401332:	bf bb 30 40 00       	mov    $0x4030bb,%edi
  401337:	b8 00 00 00 00       	mov    $0x0,%eax
  40133c:	e8 3f f8 ff ff       	callq  400b80 <printf@plt>
  401341:	bf 08 00 00 00       	mov    $0x8,%edi
  401346:	e8 35 f9 ff ff       	callq  400c80 <exit@plt>

000000000040134b <string_length>:
  40134b:	b8 00 00 00 00       	mov    $0x0,%eax
  401350:	80 3f 00             	cmpb   $0x0,(%rdi)
  401353:	74 0e                	je     401363 <string_length+0x18>
  401355:	48 83 c7 01          	add    $0x1,%rdi
  401359:	83 c0 01             	add    $0x1,%eax
  40135c:	3d 10 27 00 00       	cmp    $0x2710,%eax
  401361:	75 ed                	jne    401350 <string_length+0x5>
  401363:	c3                   	retq   

0000000000401364 <strings_not_equal>:
  401364:	41 54                	push   %r12
  401366:	55                   	push   %rbp
  401367:	53                   	push   %rbx
  401368:	48 89 fb             	mov    %rdi,%rbx
  40136b:	48 89 f5             	mov    %rsi,%rbp
  40136e:	e8 d8 ff ff ff       	callq  40134b <string_length>
  401373:	41 89 c4             	mov    %eax,%r12d
  401376:	48 89 ef             	mov    %rbp,%rdi
  401379:	e8 cd ff ff ff       	callq  40134b <string_length>
  40137e:	ba 01 00 00 00       	mov    $0x1,%edx
  401383:	41 39 c4             	cmp    %eax,%r12d
  401386:	75 2f                	jne    4013b7 <strings_not_equal+0x53>
  401388:	0f b6 03             	movzbl (%rbx),%eax
  40138b:	84 c0                	test   %al,%al
  40138d:	74 2f                	je     4013be <strings_not_equal+0x5a>
  40138f:	3a 45 00             	cmp    0x0(%rbp),%al
  401392:	75 31                	jne    4013c5 <strings_not_equal+0x61>
  401394:	b8 01 00 00 00       	mov    $0x1,%eax
  401399:	0f b6 14 03          	movzbl (%rbx,%rax,1),%edx
  40139d:	84 d2                	test   %dl,%dl
  40139f:	74 11                	je     4013b2 <strings_not_equal+0x4e>
  4013a1:	48 83 c0 01          	add    $0x1,%rax
  4013a5:	38 54 05 ff          	cmp    %dl,-0x1(%rbp,%rax,1)
  4013a9:	74 ee                	je     401399 <strings_not_equal+0x35>
  4013ab:	ba 01 00 00 00       	mov    $0x1,%edx
  4013b0:	eb 05                	jmp    4013b7 <strings_not_equal+0x53>
  4013b2:	ba 00 00 00 00       	mov    $0x0,%edx
  4013b7:	89 d0                	mov    %edx,%eax
  4013b9:	5b                   	pop    %rbx
  4013ba:	5d                   	pop    %rbp
  4013bb:	41 5c                	pop    %r12
  4013bd:	c3                   	retq   
  4013be:	ba 00 00 00 00       	mov    $0x0,%edx
  4013c3:	eb f2                	jmp    4013b7 <strings_not_equal+0x53>
  4013c5:	ba 01 00 00 00       	mov    $0x1,%edx
  4013ca:	eb eb                	jmp    4013b7 <strings_not_equal+0x53>

00000000004013cc <initialize_bomb>:
  4013cc:	53                   	push   %rbx
  4013cd:	48 81 ec 40 20 00 00 	sub    $0x2040,%rsp
  4013d4:	be da 12 40 00       	mov    $0x4012da,%esi
  4013d9:	bf 02 00 00 00       	mov    $0x2,%edi
  4013de:	e8 fd f7 ff ff       	callq  400be0 <signal@plt>
  4013e3:	be 40 00 00 00       	mov    $0x40,%esi
  4013e8:	48 8d bc 24 00 20 00 	lea    0x2000(%rsp),%rdi
  4013ef:	00 
  4013f0:	e8 6b f8 ff ff       	callq  400c60 <gethostname@plt>
  4013f5:	85 c0                	test   %eax,%eax
  4013f7:	75 43                	jne    40143c <initialize_bomb+0x70>
  4013f9:	48 8b 3d 80 2f 20 00 	mov    0x202f80(%rip),%rdi        # 604380 <host_table>
  401400:	bb 88 43 60 00       	mov    $0x604388,%ebx
  401405:	48 85 ff             	test   %rdi,%rdi
  401408:	74 1e                	je     401428 <initialize_bomb+0x5c>
  40140a:	48 8d b4 24 00 20 00 	lea    0x2000(%rsp),%rsi
  401411:	00 
  401412:	e8 19 f7 ff ff       	callq  400b30 <strcasecmp@plt>
  401417:	85 c0                	test   %eax,%eax
  401419:	74 51                	je     40146c <initialize_bomb+0xa0>
  40141b:	48 83 c3 08          	add    $0x8,%rbx
  40141f:	48 8b 7b f8          	mov    -0x8(%rbx),%rdi
  401423:	48 85 ff             	test   %rdi,%rdi
  401426:	75 e2                	jne    40140a <initialize_bomb+0x3e>
  401428:	bf 78 2b 40 00       	mov    $0x402b78,%edi
  40142d:	e8 2e f7 ff ff       	callq  400b60 <puts@plt>
  401432:	bf 08 00 00 00       	mov    $0x8,%edi
  401437:	e8 44 f8 ff ff       	callq  400c80 <exit@plt>
  40143c:	bf 40 2b 40 00       	mov    $0x402b40,%edi
  401441:	e8 1a f7 ff ff       	callq  400b60 <puts@plt>
  401446:	bf 08 00 00 00       	mov    $0x8,%edi
  40144b:	e8 30 f8 ff ff       	callq  400c80 <exit@plt>
  401450:	48 89 e6             	mov    %rsp,%rsi
  401453:	bf cc 30 40 00       	mov    $0x4030cc,%edi
  401458:	b8 00 00 00 00       	mov    $0x0,%eax
  40145d:	e8 1e f7 ff ff       	callq  400b80 <printf@plt>
  401462:	bf 08 00 00 00       	mov    $0x8,%edi
  401467:	e8 14 f8 ff ff       	callq  400c80 <exit@plt>
  40146c:	48 89 e7             	mov    %rsp,%rdi
  40146f:	e8 0a 12 00 00       	callq  40267e <init_driver>
  401474:	85 c0                	test   %eax,%eax
  401476:	78 d8                	js     401450 <initialize_bomb+0x84>
  401478:	48 81 c4 40 20 00 00 	add    $0x2040,%rsp
  40147f:	5b                   	pop    %rbx
  401480:	c3                   	retq   

0000000000401481 <welcome_message>:
  401481:	83 ff 01             	cmp    $0x1,%edi
  401484:	74 01                	je     401487 <welcome_message+0x6>
  401486:	c3                   	retq   
  401487:	48 83 ec 08          	sub    $0x8,%rsp
  40148b:	bf b0 2b 40 00       	mov    $0x402bb0,%edi
  401490:	e8 cb f6 ff ff       	callq  400b60 <puts@plt>
  401495:	bf f8 2b 40 00       	mov    $0x402bf8,%edi
  40149a:	e8 c1 f6 ff ff       	callq  400b60 <puts@plt>
  40149f:	bf 40 2c 40 00       	mov    $0x402c40,%edi
  4014a4:	e8 b7 f6 ff ff       	callq  400b60 <puts@plt>
  4014a9:	bf 88 2c 40 00       	mov    $0x402c88,%edi
  4014ae:	e8 ad f6 ff ff       	callq  400b60 <puts@plt>
  4014b3:	bf 88 2c 40 00       	mov    $0x402c88,%edi
  4014b8:	e8 a3 f6 ff ff       	callq  400b60 <puts@plt>
  4014bd:	bf d0 2c 40 00       	mov    $0x402cd0,%edi
  4014c2:	e8 99 f6 ff ff       	callq  400b60 <puts@plt>
  4014c7:	bf 18 2d 40 00       	mov    $0x402d18,%edi
  4014cc:	e8 8f f6 ff ff       	callq  400b60 <puts@plt>
  4014d1:	bf 60 2d 40 00       	mov    $0x402d60,%edi
  4014d6:	e8 85 f6 ff ff       	callq  400b60 <puts@plt>
  4014db:	bf a8 2d 40 00       	mov    $0x402da8,%edi
  4014e0:	e8 7b f6 ff ff       	callq  400b60 <puts@plt>
  4014e5:	bf f0 2d 40 00       	mov    $0x402df0,%edi
  4014ea:	e8 71 f6 ff ff       	callq  400b60 <puts@plt>
  4014ef:	bf 38 2e 40 00       	mov    $0x402e38,%edi
  4014f4:	e8 67 f6 ff ff       	callq  400b60 <puts@plt>
  4014f9:	bf 80 2e 40 00       	mov    $0x402e80,%edi
  4014fe:	e8 5d f6 ff ff       	callq  400b60 <puts@plt>
  401503:	bf c8 2e 40 00       	mov    $0x402ec8,%edi
  401508:	e8 53 f6 ff ff       	callq  400b60 <puts@plt>
  40150d:	bf 10 2f 40 00       	mov    $0x402f10,%edi
  401512:	e8 49 f6 ff ff       	callq  400b60 <puts@plt>
  401517:	bf 58 2f 40 00       	mov    $0x402f58,%edi
  40151c:	e8 3f f6 ff ff       	callq  400b60 <puts@plt>
  401521:	bf a0 2f 40 00       	mov    $0x402fa0,%edi
  401526:	e8 35 f6 ff ff       	callq  400b60 <puts@plt>
  40152b:	48 83 c4 08          	add    $0x8,%rsp
  40152f:	c3                   	retq   

0000000000401530 <initialize_bomb_solve>:
  401530:	c3                   	retq   

0000000000401531 <blank_line>:
  401531:	55                   	push   %rbp
  401532:	53                   	push   %rbx
  401533:	48 83 ec 08          	sub    $0x8,%rsp
  401537:	48 89 fd             	mov    %rdi,%rbp
  40153a:	0f b6 5d 00          	movzbl 0x0(%rbp),%ebx
  40153e:	84 db                	test   %bl,%bl
  401540:	74 1e                	je     401560 <blank_line+0x2f>
  401542:	e8 69 f7 ff ff       	callq  400cb0 <__ctype_b_loc@plt>
  401547:	48 83 c5 01          	add    $0x1,%rbp
  40154b:	48 0f be db          	movsbq %bl,%rbx
  40154f:	48 8b 00             	mov    (%rax),%rax
  401552:	f6 44 58 01 20       	testb  $0x20,0x1(%rax,%rbx,2)
  401557:	75 e1                	jne    40153a <blank_line+0x9>
  401559:	b8 00 00 00 00       	mov    $0x0,%eax
  40155e:	eb 05                	jmp    401565 <blank_line+0x34>
  401560:	b8 01 00 00 00       	mov    $0x1,%eax
  401565:	48 83 c4 08          	add    $0x8,%rsp
  401569:	5b                   	pop    %rbx
  40156a:	5d                   	pop    %rbp
  40156b:	c3                   	retq   

000000000040156c <skip>:
  40156c:	53                   	push   %rbx
  40156d:	48 63 05 2c 32 20 00 	movslq 0x20322c(%rip),%rax        # 6047a0 <num_input_strings>
  401574:	48 8d 3c 80          	lea    (%rax,%rax,4),%rdi
  401578:	48 c1 e7 04          	shl    $0x4,%rdi
  40157c:	48 81 c7 c0 47 60 00 	add    $0x6047c0,%rdi
  401583:	48 8b 15 1e 32 20 00 	mov    0x20321e(%rip),%rdx        # 6047a8 <infile>
  40158a:	be 50 00 00 00       	mov    $0x50,%esi
  40158f:	e8 3c f6 ff ff       	callq  400bd0 <fgets@plt>
  401594:	48 89 c3             	mov    %rax,%rbx
  401597:	48 85 c0             	test   %rax,%rax
  40159a:	74 0c                	je     4015a8 <skip+0x3c>
  40159c:	48 89 c7             	mov    %rax,%rdi
  40159f:	e8 8d ff ff ff       	callq  401531 <blank_line>
  4015a4:	85 c0                	test   %eax,%eax
  4015a6:	75 c5                	jne    40156d <skip+0x1>
  4015a8:	48 89 d8             	mov    %rbx,%rax
  4015ab:	5b                   	pop    %rbx
  4015ac:	c3                   	retq   

00000000004015ad <send_msg>:
  4015ad:	48 81 ec 08 40 00 00 	sub    $0x4008,%rsp
  4015b4:	44 8b 05 e5 31 20 00 	mov    0x2031e5(%rip),%r8d        # 6047a0 <num_input_strings>
  4015bb:	41 8d 40 ff          	lea    -0x1(%r8),%eax
  4015bf:	48 98                	cltq   
  4015c1:	48 8d 04 80          	lea    (%rax,%rax,4),%rax
  4015c5:	48 c1 e0 04          	shl    $0x4,%rax
  4015c9:	85 ff                	test   %edi,%edi
  4015cb:	b9 e6 30 40 00       	mov    $0x4030e6,%ecx
  4015d0:	ba ee 30 40 00       	mov    $0x4030ee,%edx
  4015d5:	48 0f 44 ca          	cmove  %rdx,%rcx
  4015d9:	4c 8d 88 c0 47 60 00 	lea    0x6047c0(%rax),%r9
  4015e0:	8b 15 8e 2d 20 00    	mov    0x202d8e(%rip),%edx        # 604374 <bomb_id>
  4015e6:	be f7 30 40 00       	mov    $0x4030f7,%esi
  4015eb:	48 8d bc 24 00 20 00 	lea    0x2000(%rsp),%rdi
  4015f2:	00 
  4015f3:	b8 00 00 00 00       	mov    $0x0,%eax
  4015f8:	e8 73 f6 ff ff       	callq  400c70 <sprintf@plt>
  4015fd:	49 89 e0             	mov    %rsp,%r8
  401600:	b9 00 00 00 00       	mov    $0x0,%ecx
  401605:	48 8d 94 24 00 20 00 	lea    0x2000(%rsp),%rdx
  40160c:	00 
  40160d:	be 50 43 60 00       	mov    $0x604350,%esi
  401612:	bf 68 43 60 00       	mov    $0x604368,%edi
  401617:	e8 13 12 00 00       	callq  40282f <driver_post>
  40161c:	85 c0                	test   %eax,%eax
  40161e:	78 08                	js     401628 <send_msg+0x7b>
  401620:	48 81 c4 08 40 00 00 	add    $0x4008,%rsp
  401627:	c3                   	retq   
  401628:	48 89 e7             	mov    %rsp,%rdi
  40162b:	e8 30 f5 ff ff       	callq  400b60 <puts@plt>
  401630:	bf 00 00 00 00       	mov    $0x0,%edi
  401635:	e8 46 f6 ff ff       	callq  400c80 <exit@plt>

000000000040163a <phase_defused>:
  40163a:	48 83 ec 08          	sub    $0x8,%rsp
  40163e:	bf 01 00 00 00       	mov    $0x1,%edi
  401643:	e8 65 ff ff ff       	callq  4015ad <send_msg>
  401648:	83 3d 51 31 20 00 05 	cmpl   $0x5,0x203151(%rip)        # 6047a0 <num_input_strings>
  40164f:	7e 09                	jle    40165a <phase_defused+0x20>
  401651:	83 3d 44 31 20 00 21 	cmpl   $0x21,0x203144(%rip)        # 60479c <trap>
  401658:	75 05                	jne    40165f <phase_defused+0x25>
  40165a:	48 83 c4 08          	add    $0x8,%rsp
  40165e:	c3                   	retq   
  40165f:	bf e8 2f 40 00       	mov    $0x402fe8,%edi
  401664:	e8 f7 f4 ff ff       	callq  400b60 <puts@plt>
  401669:	bf 18 30 40 00       	mov    $0x403018,%edi
  40166e:	e8 ed f4 ff ff       	callq  400b60 <puts@plt>
  401673:	eb e5                	jmp    40165a <phase_defused+0x20>

0000000000401675 <explode_bomb>:
  401675:	48 81 ec d8 00 00 00 	sub    $0xd8,%rsp
  40167c:	83 3d 1d 31 20 00 06 	cmpl   $0x6,0x20311d(%rip)        # 6047a0 <num_input_strings>
  401683:	77 17                	ja     40169c <explode_bomb+0x27>
  401685:	8b 05 15 31 20 00    	mov    0x203115(%rip),%eax        # 6047a0 <num_input_strings>
  40168b:	ff 24 c5 e0 32 40 00 	jmpq   *0x4032e0(,%rax,8)
  401692:	bf 03 31 40 00       	mov    $0x403103,%edi
  401697:	e8 c4 f4 ff ff       	callq  400b60 <puts@plt>
  40169c:	48 89 e7             	mov    %rsp,%rdi
  40169f:	b9 19 00 00 00       	mov    $0x19,%ecx
  4016a4:	b8 00 00 00 00       	mov    $0x0,%eax
  4016a9:	f3 48 ab             	rep stos %rax,%es:(%rdi)
  4016ac:	c6 04 24 53          	movb   $0x53,(%rsp)
  4016b0:	c6 44 24 01 6f       	movb   $0x6f,0x1(%rsp)
  4016b5:	c6 44 24 02 20       	movb   $0x20,0x2(%rsp)
  4016ba:	c6 44 24 03 79       	movb   $0x79,0x3(%rsp)
  4016bf:	c6 44 24 04 6f       	movb   $0x6f,0x4(%rsp)
  4016c4:	c6 44 24 05 75       	movb   $0x75,0x5(%rsp)
  4016c9:	c6 44 24 06 20       	movb   $0x20,0x6(%rsp)
  4016ce:	c6 44 24 07 6d       	movb   $0x6d,0x7(%rsp)
  4016d3:	c6 44 24 08 61       	movb   $0x61,0x8(%rsp)
  4016d8:	c6 44 24 09 64       	movb   $0x64,0x9(%rsp)
  4016dd:	c6 44 24 0a 65       	movb   $0x65,0xa(%rsp)
  4016e2:	c6 44 24 0b 20       	movb   $0x20,0xb(%rsp)
  4016e7:	c6 44 24 0c 69       	movb   $0x69,0xc(%rsp)
  4016ec:	c6 44 24 0d 74       	movb   $0x74,0xd(%rsp)
  4016f1:	c6 44 24 0e 20       	movb   $0x20,0xe(%rsp)
  4016f6:	c6 44 24 0f 74       	movb   $0x74,0xf(%rsp)
  4016fb:	c6 44 24 10 6f       	movb   $0x6f,0x10(%rsp)
  401700:	c6 44 24 11 20       	movb   $0x20,0x11(%rsp)
  401705:	c6 44 24 12 74       	movb   $0x74,0x12(%rsp)
  40170a:	c6 44 24 13 68       	movb   $0x68,0x13(%rsp)
  40170f:	c6 44 24 14 65       	movb   $0x65,0x14(%rsp)
  401714:	c6 44 24 15 20       	movb   $0x20,0x15(%rsp)
  401719:	c6 44 24 16 73       	movb   $0x73,0x16(%rsp)
  40171e:	c6 44 24 17 33       	movb   $0x33,0x17(%rsp)
  401723:	c6 44 24 18 63       	movb   $0x63,0x18(%rsp)
  401728:	c6 44 24 19 72       	movb   $0x72,0x19(%rsp)
  40172d:	c6 44 24 1a 65       	movb   $0x65,0x1a(%rsp)
  401732:	c6 44 24 1b 74       	movb   $0x74,0x1b(%rsp)
  401737:	c6 44 24 1c 20       	movb   $0x20,0x1c(%rsp)
  40173c:	c6 44 24 1d 70       	movb   $0x70,0x1d(%rsp)
  401741:	c6 44 24 1e 68       	movb   $0x68,0x1e(%rsp)
  401746:	c6 44 24 1f 61       	movb   $0x61,0x1f(%rsp)
  40174b:	c6 44 24 20 73       	movb   $0x73,0x20(%rsp)
  401750:	c6 44 24 21 65       	movb   $0x65,0x21(%rsp)
  401755:	c6 44 24 22 2e       	movb   $0x2e,0x22(%rsp)
  40175a:	c6 44 24 23 20       	movb   $0x20,0x23(%rsp)
  40175f:	c6 44 24 24 20       	movb   $0x20,0x24(%rsp)
  401764:	c6 44 24 25 4e       	movb   $0x4e,0x25(%rsp)
  401769:	c6 44 24 26 69       	movb   $0x69,0x26(%rsp)
  40176e:	c6 44 24 27 63       	movb   $0x63,0x27(%rsp)
  401773:	c6 44 24 28 65       	movb   $0x65,0x28(%rsp)
  401778:	c6 44 24 29 2c       	movb   $0x2c,0x29(%rsp)
  40177d:	c6 44 24 2a 20       	movb   $0x20,0x2a(%rsp)
  401782:	c6 44 24 2b 62       	movb   $0x62,0x2b(%rsp)
  401787:	c6 44 24 2c 75       	movb   $0x75,0x2c(%rsp)
  40178c:	c6 44 24 2d 74       	movb   $0x74,0x2d(%rsp)
  401791:	c6 44 24 2e 0a       	movb   $0xa,0x2e(%rsp)
  401796:	c6 44 24 2f 64       	movb   $0x64,0x2f(%rsp)
  40179b:	c6 44 24 30 6f       	movb   $0x6f,0x30(%rsp)
  4017a0:	c6 44 24 31 6e       	movb   $0x6e,0x31(%rsp)
  4017a5:	c6 44 24 32 27       	movb   $0x27,0x32(%rsp)
  4017aa:	c6 44 24 33 74       	movb   $0x74,0x33(%rsp)
  4017af:	c6 44 24 34 20       	movb   $0x20,0x34(%rsp)
  4017b4:	c6 44 24 35 74       	movb   $0x74,0x35(%rsp)
  4017b9:	c6 44 24 36 65       	movb   $0x65,0x36(%rsp)
  4017be:	c6 44 24 37 6c       	movb   $0x6c,0x37(%rsp)
  4017c3:	c6 44 24 38 6c       	movb   $0x6c,0x38(%rsp)
  4017c8:	c6 44 24 39 20       	movb   $0x20,0x39(%rsp)
  4017cd:	c6 44 24 3a 61       	movb   $0x61,0x3a(%rsp)
  4017d2:	c6 44 24 3b 6e       	movb   $0x6e,0x3b(%rsp)
  4017d7:	c6 44 24 3c 79       	movb   $0x79,0x3c(%rsp)
  4017dc:	c6 44 24 3d 6f       	movb   $0x6f,0x3d(%rsp)
  4017e1:	c6 44 24 3e 6e       	movb   $0x6e,0x3e(%rsp)
  4017e6:	c6 44 24 3f 65       	movb   $0x65,0x3f(%rsp)
  4017eb:	c6 44 24 40 20       	movb   $0x20,0x40(%rsp)
  4017f0:	c6 44 24 41 61       	movb   $0x61,0x41(%rsp)
  4017f5:	c6 44 24 42 62       	movb   $0x62,0x42(%rsp)
  4017fa:	c6 44 24 43 6f       	movb   $0x6f,0x43(%rsp)
  4017ff:	c6 44 24 44 75       	movb   $0x75,0x44(%rsp)
  401804:	c6 44 24 45 74       	movb   $0x74,0x45(%rsp)
  401809:	c6 44 24 46 20       	movb   $0x20,0x46(%rsp)
  40180e:	c6 44 24 47 69       	movb   $0x69,0x47(%rsp)
  401813:	c6 44 24 48 74       	movb   $0x74,0x48(%rsp)
  401818:	c6 44 24 49 20       	movb   $0x20,0x49(%rsp)
  40181d:	c6 44 24 4a 28       	movb   $0x28,0x4a(%rsp)
  401822:	c6 44 24 4b 65       	movb   $0x65,0x4b(%rsp)
  401827:	c6 44 24 4c 73       	movb   $0x73,0x4c(%rsp)
  40182c:	c6 44 24 4d 70       	movb   $0x70,0x4d(%rsp)
  401831:	c6 44 24 4e 65       	movb   $0x65,0x4e(%rsp)
  401836:	c6 44 24 4f 63       	movb   $0x63,0x4f(%rsp)
  40183b:	c6 44 24 50 69       	movb   $0x69,0x50(%rsp)
  401840:	c6 44 24 51 61       	movb   $0x61,0x51(%rsp)
  401845:	c6 44 24 52 6c       	movb   $0x6c,0x52(%rsp)
  40184a:	c6 44 24 53 6c       	movb   $0x6c,0x53(%rsp)
  40184f:	c6 44 24 54 79       	movb   $0x79,0x54(%rsp)
  401854:	c6 44 24 55 20       	movb   $0x20,0x55(%rsp)
  401859:	c6 44 24 56 6f       	movb   $0x6f,0x56(%rsp)
  40185e:	c6 44 24 57 6e       	movb   $0x6e,0x57(%rsp)
  401863:	c6 44 24 58 20       	movb   $0x20,0x58(%rsp)
  401868:	c6 44 24 59 50       	movb   $0x50,0x59(%rsp)
  40186d:	c6 44 24 5a 69       	movb   $0x69,0x5a(%rsp)
  401872:	c6 44 24 5b 61       	movb   $0x61,0x5b(%rsp)
  401877:	c6 44 24 5c 7a       	movb   $0x7a,0x5c(%rsp)
  40187c:	c6 44 24 5d 7a       	movb   $0x7a,0x5d(%rsp)
  401881:	c6 44 24 5e 61       	movb   $0x61,0x5e(%rsp)
  401886:	c6 44 24 5f 29       	movb   $0x29,0x5f(%rsp)
  40188b:	c6 44 24 60 2e       	movb   $0x2e,0x60(%rsp)
  401890:	c6 44 24 61 0a       	movb   $0xa,0x61(%rsp)
  401895:	c6 44 24 62 49       	movb   $0x49,0x62(%rsp)
  40189a:	c6 44 24 63 66       	movb   $0x66,0x63(%rsp)
  40189f:	c6 44 24 64 20       	movb   $0x20,0x64(%rsp)
  4018a4:	c6 44 24 65 79       	movb   $0x79,0x65(%rsp)
  4018a9:	c6 44 24 66 6f       	movb   $0x6f,0x66(%rsp)
  4018ae:	c6 44 24 67 75       	movb   $0x75,0x67(%rsp)
  4018b3:	c6 44 24 68 20       	movb   $0x20,0x68(%rsp)
  4018b8:	c6 44 24 69 64       	movb   $0x64,0x69(%rsp)
  4018bd:	c6 44 24 6a 6f       	movb   $0x6f,0x6a(%rsp)
  4018c2:	c6 44 24 6b 20       	movb   $0x20,0x6b(%rsp)
  4018c7:	c6 44 24 6c 79       	movb   $0x79,0x6c(%rsp)
  4018cc:	c6 44 24 6d 6f       	movb   $0x6f,0x6d(%rsp)
  4018d1:	c6 44 24 6e 75       	movb   $0x75,0x6e(%rsp)
  4018d6:	c6 44 24 6f 20       	movb   $0x20,0x6f(%rsp)
  4018db:	c6 44 24 70 77       	movb   $0x77,0x70(%rsp)
  4018e0:	c6 44 24 71 6f       	movb   $0x6f,0x71(%rsp)
  4018e5:	c6 44 24 72 6e       	movb   $0x6e,0x72(%rsp)
  4018ea:	c6 44 24 73 27       	movb   $0x27,0x73(%rsp)
  4018ef:	c6 44 24 74 74       	movb   $0x74,0x74(%rsp)
  4018f4:	c6 44 24 75 20       	movb   $0x20,0x75(%rsp)
  4018f9:	c6 44 24 76 67       	movb   $0x67,0x76(%rsp)
  4018fe:	c6 44 24 77 65       	movb   $0x65,0x77(%rsp)
  401903:	c6 44 24 78 74       	movb   $0x74,0x78(%rsp)
  401908:	c6 44 24 79 20       	movb   $0x20,0x79(%rsp)
  40190d:	c6 44 24 7a 61       	movb   $0x61,0x7a(%rsp)
  401912:	c6 44 24 7b 6e       	movb   $0x6e,0x7b(%rsp)
  401917:	c6 44 24 7c 79       	movb   $0x79,0x7c(%rsp)
  40191c:	c6 44 24 7d 20       	movb   $0x20,0x7d(%rsp)
  401921:	c6 44 24 7e 65       	movb   $0x65,0x7e(%rsp)
  401926:	c6 44 24 7f 78       	movb   $0x78,0x7f(%rsp)
  40192b:	c6 84 24 80 00 00 00 	movb   $0x74,0x80(%rsp)
  401932:	74 
  401933:	c6 84 24 81 00 00 00 	movb   $0x72,0x81(%rsp)
  40193a:	72 
  40193b:	c6 84 24 82 00 00 00 	movb   $0x61,0x82(%rsp)
  401942:	61 
  401943:	c6 84 24 83 00 00 00 	movb   $0x20,0x83(%rsp)
  40194a:	20 
  40194b:	c6 84 24 84 00 00 00 	movb   $0x63,0x84(%rsp)
  401952:	63 
  401953:	c6 84 24 85 00 00 00 	movb   $0x72,0x85(%rsp)
  40195a:	72 
  40195b:	c6 84 24 86 00 00 00 	movb   $0x65,0x86(%rsp)
  401962:	65 
  401963:	c6 84 24 87 00 00 00 	movb   $0x64,0x87(%rsp)
  40196a:	64 
  40196b:	c6 84 24 88 00 00 00 	movb   $0x69,0x88(%rsp)
  401972:	69 
  401973:	c6 84 24 89 00 00 00 	movb   $0x74,0x89(%rsp)
  40197a:	74 
  40197b:	c6 84 24 8a 00 00 00 	movb   $0x21,0x8a(%rsp)
  401982:	21 
  401983:	c6 84 24 8b 00 00 00 	movb   $0x20,0x8b(%rsp)
  40198a:	20 
  40198b:	c6 84 24 8c 00 00 00 	movb   $0x61,0x8c(%rsp)
  401992:	61 
  401993:	c6 84 24 8d 00 00 00 	movb   $0x6e,0x8d(%rsp)
  40199a:	6e 
  40199b:	c6 84 24 8e 00 00 00 	movb   $0x79,0x8e(%rsp)
  4019a2:	79 
  4019a3:	c6 84 24 8f 00 00 00 	movb   $0x77,0x8f(%rsp)
  4019aa:	77 
  4019ab:	c6 84 24 90 00 00 00 	movb   $0x61,0x90(%rsp)
  4019b2:	61 
  4019b3:	c6 84 24 91 00 00 00 	movb   $0x79,0x91(%rsp)
  4019ba:	79 
  4019bb:	c6 84 24 92 00 00 00 	movb   $0x73,0x92(%rsp)
  4019c2:	73 
  4019c3:	c6 84 24 93 00 00 00 	movb   $0x2c,0x93(%rsp)
  4019ca:	2c 
  4019cb:	c6 84 24 94 00 00 00 	movb   $0xa,0x94(%rsp)
  4019d2:	0a 
  4019d3:	c6 84 24 95 00 00 00 	movb   $0x66,0x95(%rsp)
  4019da:	66 
  4019db:	c6 84 24 96 00 00 00 	movb   $0x69,0x96(%rsp)
  4019e2:	69 
  4019e3:	c6 84 24 97 00 00 00 	movb   $0x6e,0x97(%rsp)
  4019ea:	6e 
  4019eb:	c6 84 24 98 00 00 00 	movb   $0x64,0x98(%rsp)
  4019f2:	64 
  4019f3:	c6 84 24 99 00 00 00 	movb   $0x69,0x99(%rsp)
  4019fa:	69 
  4019fb:	c6 84 24 9a 00 00 00 	movb   $0x6e,0x9a(%rsp)
  401a02:	6e 
  401a03:	c6 84 24 9b 00 00 00 	movb   $0x67,0x9b(%rsp)
  401a0a:	67 
  401a0b:	c6 84 24 9c 00 00 00 	movb   $0x20,0x9c(%rsp)
  401a12:	20 
  401a13:	c6 84 24 9d 00 00 00 	movb   $0x69,0x9d(%rsp)
  401a1a:	69 
  401a1b:	c6 84 24 9e 00 00 00 	movb   $0x74,0x9e(%rsp)
  401a22:	74 
  401a23:	c6 84 24 9f 00 00 00 	movb   $0x20,0x9f(%rsp)
  401a2a:	20 
  401a2b:	c6 84 24 a0 00 00 00 	movb   $0x61,0xa0(%rsp)
  401a32:	61 
  401a33:	c6 84 24 a1 00 00 00 	movb   $0x6e,0xa1(%rsp)
  401a3a:	6e 
  401a3b:	c6 84 24 a2 00 00 00 	movb   $0x64,0xa2(%rsp)
  401a42:	64 
  401a43:	c6 84 24 a3 00 00 00 	movb   $0x20,0xa3(%rsp)
  401a4a:	20 
  401a4b:	c6 84 24 a4 00 00 00 	movb   $0x73,0xa4(%rsp)
  401a52:	73 
  401a53:	c6 84 24 a5 00 00 00 	movb   $0x6f,0xa5(%rsp)
  401a5a:	6f 
  401a5b:	c6 84 24 a6 00 00 00 	movb   $0x6c,0xa6(%rsp)
  401a62:	6c 
  401a63:	c6 84 24 a7 00 00 00 	movb   $0x76,0xa7(%rsp)
  401a6a:	76 
  401a6b:	c6 84 24 a8 00 00 00 	movb   $0x69,0xa8(%rsp)
  401a72:	69 
  401a73:	c6 84 24 a9 00 00 00 	movb   $0x6e,0xa9(%rsp)
  401a7a:	6e 
  401a7b:	c6 84 24 aa 00 00 00 	movb   $0x67,0xaa(%rsp)
  401a82:	67 
  401a83:	c6 84 24 ab 00 00 00 	movb   $0x20,0xab(%rsp)
  401a8a:	20 
  401a8b:	c6 84 24 ac 00 00 00 	movb   $0x69,0xac(%rsp)
  401a92:	69 
  401a93:	c6 84 24 ad 00 00 00 	movb   $0x74,0xad(%rsp)
  401a9a:	74 
  401a9b:	c6 84 24 ae 00 00 00 	movb   $0x20,0xae(%rsp)
  401aa2:	20 
  401aa3:	c6 84 24 af 00 00 00 	movb   $0x61,0xaf(%rsp)
  401aaa:	61 
  401aab:	c6 84 24 b0 00 00 00 	movb   $0x72,0xb0(%rsp)
  401ab2:	72 
  401ab3:	c6 84 24 b1 00 00 00 	movb   $0x65,0xb1(%rsp)
  401aba:	65 
  401abb:	c6 84 24 b2 00 00 00 	movb   $0x20,0xb2(%rsp)
  401ac2:	20 
  401ac3:	c6 84 24 b3 00 00 00 	movb   $0x71,0xb3(%rsp)
  401aca:	71 
  401acb:	c6 84 24 b4 00 00 00 	movb   $0x75,0xb4(%rsp)
  401ad2:	75 
  401ad3:	c6 84 24 b5 00 00 00 	movb   $0x69,0xb5(%rsp)
  401ada:	69 
  401adb:	c6 84 24 b6 00 00 00 	movb   $0x74,0xb6(%rsp)
  401ae2:	74 
  401ae3:	c6 84 24 b7 00 00 00 	movb   $0x65,0xb7(%rsp)
  401aea:	65 
  401aeb:	c6 84 24 b8 00 00 00 	movb   $0x20,0xb8(%rsp)
  401af2:	20 
  401af3:	c6 84 24 b9 00 00 00 	movb   $0x64,0xb9(%rsp)
  401afa:	64 
  401afb:	c6 84 24 ba 00 00 00 	movb   $0x69,0xba(%rsp)
  401b02:	69 
  401b03:	c6 84 24 bb 00 00 00 	movb   $0x66,0xbb(%rsp)
  401b0a:	66 
  401b0b:	c6 84 24 bc 00 00 00 	movb   $0x66,0xbc(%rsp)
  401b12:	66 
  401b13:	c6 84 24 bd 00 00 00 	movb   $0x65,0xbd(%rsp)
  401b1a:	65 
  401b1b:	c6 84 24 be 00 00 00 	movb   $0x72,0xbe(%rsp)
  401b22:	72 
  401b23:	c6 84 24 bf 00 00 00 	movb   $0x65,0xbf(%rsp)
  401b2a:	65 
  401b2b:	c6 84 24 c0 00 00 00 	movb   $0x6e,0xc0(%rsp)
  401b32:	6e 
  401b33:	c6 84 24 c1 00 00 00 	movb   $0x74,0xc1(%rsp)
  401b3a:	74 
  401b3b:	c6 84 24 c2 00 00 00 	movb   $0x2e,0xc2(%rsp)
  401b42:	2e 
  401b43:	c6 84 24 c3 00 00 00 	movb   $0x2e,0xc3(%rsp)
  401b4a:	2e 
  401b4b:	c6 84 24 c4 00 00 00 	movb   $0x2e,0xc4(%rsp)
  401b52:	2e 
  401b53:	83 3d 46 2c 20 00 06 	cmpl   $0x6,0x202c46(%rip)        # 6047a0 <num_input_strings>
  401b5a:	75 0d                	jne    401b69 <explode_bomb+0x4f4>
  401b5c:	83 3d 39 2c 20 00 21 	cmpl   $0x21,0x202c39(%rip)        # 60479c <trap>
  401b63:	0f 84 8c 00 00 00    	je     401bf5 <explode_bomb+0x580>
  401b69:	bf 5d 31 40 00       	mov    $0x40315d,%edi
  401b6e:	e8 ed ef ff ff       	callq  400b60 <puts@plt>
  401b73:	bf 66 31 40 00       	mov    $0x403166,%edi
  401b78:	e8 e3 ef ff ff       	callq  400b60 <puts@plt>
  401b7d:	bf 00 00 00 00       	mov    $0x0,%edi
  401b82:	e8 26 fa ff ff       	callq  4015ad <send_msg>
  401b87:	bf 88 30 40 00       	mov    $0x403088,%edi
  401b8c:	e8 cf ef ff ff       	callq  400b60 <puts@plt>
  401b91:	bf 08 00 00 00       	mov    $0x8,%edi
  401b96:	e8 e5 f0 ff ff       	callq  400c80 <exit@plt>
  401b9b:	bf 60 30 40 00       	mov    $0x403060,%edi
  401ba0:	e8 bb ef ff ff       	callq  400b60 <puts@plt>
  401ba5:	e9 f2 fa ff ff       	jmpq   40169c <explode_bomb+0x27>
  401baa:	bf 08 31 40 00       	mov    $0x403108,%edi
  401baf:	e8 ac ef ff ff       	callq  400b60 <puts@plt>
  401bb4:	e9 e3 fa ff ff       	jmpq   40169c <explode_bomb+0x27>
  401bb9:	bf 1d 31 40 00       	mov    $0x40311d,%edi
  401bbe:	e8 9d ef ff ff       	callq  400b60 <puts@plt>
  401bc3:	e9 d4 fa ff ff       	jmpq   40169c <explode_bomb+0x27>
  401bc8:	bf 33 31 40 00       	mov    $0x403133,%edi
  401bcd:	e8 8e ef ff ff       	callq  400b60 <puts@plt>
  401bd2:	e9 c5 fa ff ff       	jmpq   40169c <explode_bomb+0x27>
  401bd7:	bf 4a 31 40 00       	mov    $0x40314a,%edi
  401bdc:	e8 7f ef ff ff       	callq  400b60 <puts@plt>
  401be1:	e9 b6 fa ff ff       	jmpq   40169c <explode_bomb+0x27>
  401be6:	bf 53 31 40 00       	mov    $0x403153,%edi
  401beb:	e8 70 ef ff ff       	callq  400b60 <puts@plt>
  401bf0:	e9 a7 fa ff ff       	jmpq   40169c <explode_bomb+0x27>
  401bf5:	48 89 e7             	mov    %rsp,%rdi
  401bf8:	e8 63 ef ff ff       	callq  400b60 <puts@plt>
  401bfd:	e8 38 fa ff ff       	callq  40163a <phase_defused>
  401c02:	c7 05 90 2b 20 00 00 	movl   $0x0,0x202b90(%rip)        # 60479c <trap>
  401c09:	00 00 00 
  401c0c:	b8 00 00 00 00       	mov    $0x0,%eax
  401c11:	e8 65 f6 ff ff       	callq  40127b <s3cret_phase>
  401c16:	bf 00 00 00 00       	mov    $0x0,%edi
  401c1b:	e8 60 f0 ff ff       	callq  400c80 <exit@plt>

0000000000401c20 <read_six_numbers>:
  401c20:	48 83 ec 08          	sub    $0x8,%rsp
  401c24:	48 89 f2             	mov    %rsi,%rdx
  401c27:	48 8d 4e 04          	lea    0x4(%rsi),%rcx
  401c2b:	48 8d 46 14          	lea    0x14(%rsi),%rax
  401c2f:	50                   	push   %rax
  401c30:	48 8d 46 10          	lea    0x10(%rsi),%rax
  401c34:	50                   	push   %rax
  401c35:	4c 8d 4e 0c          	lea    0xc(%rsi),%r9
  401c39:	4c 8d 46 08          	lea    0x8(%rsi),%r8
  401c3d:	be 7d 31 40 00       	mov    $0x40317d,%esi
  401c42:	b8 00 00 00 00       	mov    $0x0,%eax
  401c47:	e8 e4 ef ff ff       	callq  400c30 <__isoc99_sscanf@plt>
  401c4c:	48 83 c4 10          	add    $0x10,%rsp
  401c50:	83 f8 05             	cmp    $0x5,%eax
  401c53:	7e 05                	jle    401c5a <read_six_numbers+0x3a>
  401c55:	48 83 c4 08          	add    $0x8,%rsp
  401c59:	c3                   	retq   
  401c5a:	e8 16 fa ff ff       	callq  401675 <explode_bomb>

0000000000401c5f <read_line>:
  401c5f:	48 83 ec 08          	sub    $0x8,%rsp
  401c63:	b8 00 00 00 00       	mov    $0x0,%eax
  401c68:	e8 ff f8 ff ff       	callq  40156c <skip>
  401c6d:	48 85 c0             	test   %rax,%rax
  401c70:	74 63                	je     401cd5 <read_line+0x76>
  401c72:	8b 35 28 2b 20 00    	mov    0x202b28(%rip),%esi        # 6047a0 <num_input_strings>
  401c78:	48 63 c6             	movslq %esi,%rax
  401c7b:	48 8d 14 80          	lea    (%rax,%rax,4),%rdx
  401c7f:	48 c1 e2 04          	shl    $0x4,%rdx
  401c83:	48 81 c2 c0 47 60 00 	add    $0x6047c0,%rdx
  401c8a:	48 c7 c1 ff ff ff ff 	mov    $0xffffffffffffffff,%rcx
  401c91:	b8 00 00 00 00       	mov    $0x0,%eax
  401c96:	48 89 d7             	mov    %rdx,%rdi
  401c99:	f2 ae                	repnz scas %es:(%rdi),%al
  401c9b:	48 f7 d1             	not    %rcx
  401c9e:	48 83 e9 01          	sub    $0x1,%rcx
  401ca2:	83 f9 4e             	cmp    $0x4e,%ecx
  401ca5:	0f 8f 9c 00 00 00    	jg     401d47 <read_line+0xe8>
  401cab:	83 e9 01             	sub    $0x1,%ecx
  401cae:	48 63 c9             	movslq %ecx,%rcx
  401cb1:	48 63 c6             	movslq %esi,%rax
  401cb4:	48 8d 04 80          	lea    (%rax,%rax,4),%rax
  401cb8:	48 c1 e0 04          	shl    $0x4,%rax
  401cbc:	c6 84 01 c0 47 60 00 	movb   $0x0,0x6047c0(%rcx,%rax,1)
  401cc3:	00 
  401cc4:	8d 46 01             	lea    0x1(%rsi),%eax
  401cc7:	89 05 d3 2a 20 00    	mov    %eax,0x202ad3(%rip)        # 6047a0 <num_input_strings>
  401ccd:	48 89 d0             	mov    %rdx,%rax
  401cd0:	48 83 c4 08          	add    $0x8,%rsp
  401cd4:	c3                   	retq   
  401cd5:	48 8b 05 ac 2a 20 00 	mov    0x202aac(%rip),%rax        # 604788 <stdin@@GLIBC_2.2.5>
  401cdc:	48 39 05 c5 2a 20 00 	cmp    %rax,0x202ac5(%rip)        # 6047a8 <infile>
  401ce3:	74 19                	je     401cfe <read_line+0x9f>
  401ce5:	bf ad 31 40 00       	mov    $0x4031ad,%edi
  401cea:	e8 31 ee ff ff       	callq  400b20 <getenv@plt>
  401cef:	48 85 c0             	test   %rax,%rax
  401cf2:	74 1e                	je     401d12 <read_line+0xb3>
  401cf4:	bf 00 00 00 00       	mov    $0x0,%edi
  401cf9:	e8 82 ef ff ff       	callq  400c80 <exit@plt>
  401cfe:	bf 8f 31 40 00       	mov    $0x40318f,%edi
  401d03:	e8 58 ee ff ff       	callq  400b60 <puts@plt>
  401d08:	bf 08 00 00 00       	mov    $0x8,%edi
  401d0d:	e8 6e ef ff ff       	callq  400c80 <exit@plt>
  401d12:	48 8b 05 6f 2a 20 00 	mov    0x202a6f(%rip),%rax        # 604788 <stdin@@GLIBC_2.2.5>
  401d19:	48 89 05 88 2a 20 00 	mov    %rax,0x202a88(%rip)        # 6047a8 <infile>
  401d20:	b8 00 00 00 00       	mov    $0x0,%eax
  401d25:	e8 42 f8 ff ff       	callq  40156c <skip>
  401d2a:	48 85 c0             	test   %rax,%rax
  401d2d:	0f 85 3f ff ff ff    	jne    401c72 <read_line+0x13>
  401d33:	bf 8f 31 40 00       	mov    $0x40318f,%edi
  401d38:	e8 23 ee ff ff       	callq  400b60 <puts@plt>
  401d3d:	bf 00 00 00 00       	mov    $0x0,%edi
  401d42:	e8 39 ef ff ff       	callq  400c80 <exit@plt>
  401d47:	bf b8 31 40 00       	mov    $0x4031b8,%edi
  401d4c:	e8 0f ee ff ff       	callq  400b60 <puts@plt>
  401d51:	8b 05 49 2a 20 00    	mov    0x202a49(%rip),%eax        # 6047a0 <num_input_strings>
  401d57:	8d 50 01             	lea    0x1(%rax),%edx
  401d5a:	89 15 40 2a 20 00    	mov    %edx,0x202a40(%rip)        # 6047a0 <num_input_strings>
  401d60:	48 98                	cltq   
  401d62:	48 6b c0 50          	imul   $0x50,%rax,%rax
  401d66:	48 be 2a 2a 2a 74 72 	mov    $0x636e7572742a2a2a,%rsi
  401d6d:	75 6e 63 
  401d70:	48 bf 61 74 65 64 2a 	mov    $0x2a2a2a64657461,%rdi
  401d77:	2a 2a 00 
  401d7a:	48 89 b0 c0 47 60 00 	mov    %rsi,0x6047c0(%rax)
  401d81:	48 89 b8 c8 47 60 00 	mov    %rdi,0x6047c8(%rax)
  401d88:	e8 e8 f8 ff ff       	callq  401675 <explode_bomb>

0000000000401d8d <sigalrm_handler>:
  401d8d:	48 83 ec 08          	sub    $0x8,%rsp
  401d91:	ba 00 00 00 00       	mov    $0x0,%edx
  401d96:	be 18 33 40 00       	mov    $0x403318,%esi
  401d9b:	48 8b 3d ee 29 20 00 	mov    0x2029ee(%rip),%rdi        # 604790 <stderr@@GLIBC_2.2.5>
  401da2:	b8 00 00 00 00       	mov    $0x0,%eax
  401da7:	e8 54 ee ff ff       	callq  400c00 <fprintf@plt>
  401dac:	bf 01 00 00 00       	mov    $0x1,%edi
  401db1:	e8 ca ee ff ff       	callq  400c80 <exit@plt>

0000000000401db6 <rio_readlineb>:
  401db6:	41 56                	push   %r14
  401db8:	41 55                	push   %r13
  401dba:	41 54                	push   %r12
  401dbc:	55                   	push   %rbp
  401dbd:	53                   	push   %rbx
  401dbe:	48 89 f5             	mov    %rsi,%rbp
  401dc1:	48 83 fa 01          	cmp    $0x1,%rdx
  401dc5:	0f 86 9d 00 00 00    	jbe    401e68 <rio_readlineb+0xb2>
  401dcb:	48 89 fb             	mov    %rdi,%rbx
  401dce:	4c 8d 74 16 ff       	lea    -0x1(%rsi,%rdx,1),%r14
  401dd3:	41 bd 01 00 00 00    	mov    $0x1,%r13d
  401dd9:	4c 8d 67 10          	lea    0x10(%rdi),%r12
  401ddd:	eb 17                	jmp    401df6 <rio_readlineb+0x40>
  401ddf:	e8 5c ed ff ff       	callq  400b40 <__errno_location@plt>
  401de4:	83 38 04             	cmpl   $0x4,(%rax)
  401de7:	74 0d                	je     401df6 <rio_readlineb+0x40>
  401de9:	48 c7 c0 ff ff ff ff 	mov    $0xffffffffffffffff,%rax
  401df0:	eb 28                	jmp    401e1a <rio_readlineb+0x64>
  401df2:	4c 89 63 08          	mov    %r12,0x8(%rbx)
  401df6:	8b 43 04             	mov    0x4(%rbx),%eax
  401df9:	85 c0                	test   %eax,%eax
  401dfb:	7f 2e                	jg     401e2b <rio_readlineb+0x75>
  401dfd:	ba 00 20 00 00       	mov    $0x2000,%edx
  401e02:	4c 89 e6             	mov    %r12,%rsi
  401e05:	8b 3b                	mov    (%rbx),%edi
  401e07:	e8 a4 ed ff ff       	callq  400bb0 <read@plt>
  401e0c:	89 43 04             	mov    %eax,0x4(%rbx)
  401e0f:	85 c0                	test   %eax,%eax
  401e11:	78 cc                	js     401ddf <rio_readlineb+0x29>
  401e13:	75 dd                	jne    401df2 <rio_readlineb+0x3c>
  401e15:	b8 00 00 00 00       	mov    $0x0,%eax
  401e1a:	85 c0                	test   %eax,%eax
  401e1c:	75 52                	jne    401e70 <rio_readlineb+0xba>
  401e1e:	b8 00 00 00 00       	mov    $0x0,%eax
  401e23:	41 83 fd 01          	cmp    $0x1,%r13d
  401e27:	75 2f                	jne    401e58 <rio_readlineb+0xa2>
  401e29:	eb 34                	jmp    401e5f <rio_readlineb+0xa9>
  401e2b:	48 8b 53 08          	mov    0x8(%rbx),%rdx
  401e2f:	0f b6 0a             	movzbl (%rdx),%ecx
  401e32:	48 83 c2 01          	add    $0x1,%rdx
  401e36:	48 89 53 08          	mov    %rdx,0x8(%rbx)
  401e3a:	83 e8 01             	sub    $0x1,%eax
  401e3d:	89 43 04             	mov    %eax,0x4(%rbx)
  401e40:	48 83 c5 01          	add    $0x1,%rbp
  401e44:	88 4d ff             	mov    %cl,-0x1(%rbp)
  401e47:	80 f9 0a             	cmp    $0xa,%cl
  401e4a:	74 0c                	je     401e58 <rio_readlineb+0xa2>
  401e4c:	41 83 c5 01          	add    $0x1,%r13d
  401e50:	4c 39 f5             	cmp    %r14,%rbp
  401e53:	75 a1                	jne    401df6 <rio_readlineb+0x40>
  401e55:	4c 89 f5             	mov    %r14,%rbp
  401e58:	c6 45 00 00          	movb   $0x0,0x0(%rbp)
  401e5c:	49 63 c5             	movslq %r13d,%rax
  401e5f:	5b                   	pop    %rbx
  401e60:	5d                   	pop    %rbp
  401e61:	41 5c                	pop    %r12
  401e63:	41 5d                	pop    %r13
  401e65:	41 5e                	pop    %r14
  401e67:	c3                   	retq   
  401e68:	41 bd 01 00 00 00    	mov    $0x1,%r13d
  401e6e:	eb e8                	jmp    401e58 <rio_readlineb+0xa2>
  401e70:	48 c7 c0 ff ff ff ff 	mov    $0xffffffffffffffff,%rax
  401e77:	eb e6                	jmp    401e5f <rio_readlineb+0xa9>

0000000000401e79 <submitr>:
  401e79:	41 57                	push   %r15
  401e7b:	41 56                	push   %r14
  401e7d:	41 55                	push   %r13
  401e7f:	41 54                	push   %r12
  401e81:	55                   	push   %rbp
  401e82:	53                   	push   %rbx
  401e83:	48 81 ec 68 a0 00 00 	sub    $0xa068,%rsp
  401e8a:	48 89 fd             	mov    %rdi,%rbp
  401e8d:	41 89 f5             	mov    %esi,%r13d
  401e90:	48 89 14 24          	mov    %rdx,(%rsp)
  401e94:	48 89 4c 24 08       	mov    %rcx,0x8(%rsp)
  401e99:	4c 89 44 24 18       	mov    %r8,0x18(%rsp)
  401e9e:	4c 89 4c 24 10       	mov    %r9,0x10(%rsp)
  401ea3:	48 8b 9c 24 a0 a0 00 	mov    0xa0a0(%rsp),%rbx
  401eaa:	00 
  401eab:	4c 8b bc 24 a8 a0 00 	mov    0xa0a8(%rsp),%r15
  401eb2:	00 
  401eb3:	c7 84 24 3c 20 00 00 	movl   $0x0,0x203c(%rsp)
  401eba:	00 00 00 00 
  401ebe:	ba 00 00 00 00       	mov    $0x0,%edx
  401ec3:	be 01 00 00 00       	mov    $0x1,%esi
  401ec8:	bf 02 00 00 00       	mov    $0x2,%edi
  401ecd:	e8 ee ed ff ff       	callq  400cc0 <socket@plt>
  401ed2:	85 c0                	test   %eax,%eax
  401ed4:	0f 88 2f 01 00 00    	js     402009 <submitr+0x190>
  401eda:	41 89 c4             	mov    %eax,%r12d
  401edd:	48 89 ef             	mov    %rbp,%rdi
  401ee0:	e8 0b ed ff ff       	callq  400bf0 <gethostbyname@plt>
  401ee5:	48 85 c0             	test   %rax,%rax
  401ee8:	0f 84 6b 01 00 00    	je     402059 <submitr+0x1e0>
  401eee:	48 8d 8c 24 50 a0 00 	lea    0xa050(%rsp),%rcx
  401ef5:	00 
  401ef6:	48 c7 84 24 52 a0 00 	movq   $0x0,0xa052(%rsp)
  401efd:	00 00 00 00 00 
  401f02:	c7 84 24 5a a0 00 00 	movl   $0x0,0xa05a(%rsp)
  401f09:	00 00 00 00 
  401f0d:	66 c7 84 24 5e a0 00 	movw   $0x0,0xa05e(%rsp)
  401f14:	00 00 00 
  401f17:	66 c7 84 24 50 a0 00 	movw   $0x2,0xa050(%rsp)
  401f1e:	00 02 00 
  401f21:	48 63 50 14          	movslq 0x14(%rax),%rdx
  401f25:	48 8b 40 18          	mov    0x18(%rax),%rax
  401f29:	48 8d 79 04          	lea    0x4(%rcx),%rdi
  401f2d:	48 8b 30             	mov    (%rax),%rsi
  401f30:	e8 0b ed ff ff       	callq  400c40 <memmove@plt>
  401f35:	66 41 c1 cd 08       	ror    $0x8,%r13w
  401f3a:	66 44 89 ac 24 52 a0 	mov    %r13w,0xa052(%rsp)
  401f41:	00 00 
  401f43:	ba 10 00 00 00       	mov    $0x10,%edx
  401f48:	48 8d b4 24 50 a0 00 	lea    0xa050(%rsp),%rsi
  401f4f:	00 
  401f50:	44 89 e7             	mov    %r12d,%edi
  401f53:	e8 38 ed ff ff       	callq  400c90 <connect@plt>
  401f58:	85 c0                	test   %eax,%eax
  401f5a:	0f 88 64 01 00 00    	js     4020c4 <submitr+0x24b>
  401f60:	49 c7 c1 ff ff ff ff 	mov    $0xffffffffffffffff,%r9
  401f67:	b8 00 00 00 00       	mov    $0x0,%eax
  401f6c:	4c 89 c9             	mov    %r9,%rcx
  401f6f:	48 89 df             	mov    %rbx,%rdi
  401f72:	f2 ae                	repnz scas %es:(%rdi),%al
  401f74:	48 f7 d1             	not    %rcx
  401f77:	48 89 ce             	mov    %rcx,%rsi
  401f7a:	4c 89 c9             	mov    %r9,%rcx
  401f7d:	48 8b 3c 24          	mov    (%rsp),%rdi
  401f81:	f2 ae                	repnz scas %es:(%rdi),%al
  401f83:	49 89 c8             	mov    %rcx,%r8
  401f86:	4c 89 c9             	mov    %r9,%rcx
  401f89:	48 8b 7c 24 08       	mov    0x8(%rsp),%rdi
  401f8e:	f2 ae                	repnz scas %es:(%rdi),%al
  401f90:	48 f7 d1             	not    %rcx
  401f93:	48 89 ca             	mov    %rcx,%rdx
  401f96:	4c 89 c9             	mov    %r9,%rcx
  401f99:	48 8b 7c 24 10       	mov    0x10(%rsp),%rdi
  401f9e:	f2 ae                	repnz scas %es:(%rdi),%al
  401fa0:	4c 29 c2             	sub    %r8,%rdx
  401fa3:	48 29 ca             	sub    %rcx,%rdx
  401fa6:	48 8d 44 76 fd       	lea    -0x3(%rsi,%rsi,2),%rax
  401fab:	48 8d 44 02 7b       	lea    0x7b(%rdx,%rax,1),%rax
  401fb0:	48 3d 00 20 00 00    	cmp    $0x2000,%rax
  401fb6:	0f 87 65 01 00 00    	ja     402121 <submitr+0x2a8>
  401fbc:	48 8d 94 24 40 40 00 	lea    0x4040(%rsp),%rdx
  401fc3:	00 
  401fc4:	b9 00 04 00 00       	mov    $0x400,%ecx
  401fc9:	b8 00 00 00 00       	mov    $0x0,%eax
  401fce:	48 89 d7             	mov    %rdx,%rdi
  401fd1:	f3 48 ab             	rep stos %rax,%es:(%rdi)
  401fd4:	48 c7 c1 ff ff ff ff 	mov    $0xffffffffffffffff,%rcx
  401fdb:	48 89 df             	mov    %rbx,%rdi
  401fde:	f2 ae                	repnz scas %es:(%rdi),%al
  401fe0:	48 f7 d1             	not    %rcx
  401fe3:	48 83 e9 01          	sub    $0x1,%rcx
  401fe7:	85 c9                	test   %ecx,%ecx
  401fe9:	0f 84 45 05 00 00    	je     402534 <submitr+0x6bb>
  401fef:	8d 41 ff             	lea    -0x1(%rcx),%eax
  401ff2:	4c 8d 74 03 01       	lea    0x1(%rbx,%rax,1),%r14
  401ff7:	48 89 d5             	mov    %rdx,%rbp
  401ffa:	49 bd d9 ff 00 00 00 	mov    $0x2000000000ffd9,%r13
  402001:	00 20 00 
  402004:	e9 a5 01 00 00       	jmpq   4021ae <submitr+0x335>
  402009:	48 b8 45 72 72 6f 72 	mov    $0x43203a726f727245,%rax
  402010:	3a 20 43 
  402013:	48 ba 6c 69 65 6e 74 	mov    $0x6e7520746e65696c,%rdx
  40201a:	20 75 6e 
  40201d:	49 89 07             	mov    %rax,(%r15)
  402020:	49 89 57 08          	mov    %rdx,0x8(%r15)
  402024:	48 b8 61 62 6c 65 20 	mov    $0x206f7420656c6261,%rax
  40202b:	74 6f 20 
  40202e:	48 ba 63 72 65 61 74 	mov    $0x7320657461657263,%rdx
  402035:	65 20 73 
  402038:	49 89 47 10          	mov    %rax,0x10(%r15)
  40203c:	49 89 57 18          	mov    %rdx,0x18(%r15)
  402040:	41 c7 47 20 6f 63 6b 	movl   $0x656b636f,0x20(%r15)
  402047:	65 
  402048:	66 41 c7 47 24 74 00 	movw   $0x74,0x24(%r15)
  40204f:	b8 ff ff ff ff       	mov    $0xffffffff,%eax
  402054:	e9 03 03 00 00       	jmpq   40235c <submitr+0x4e3>
  402059:	48 b8 45 72 72 6f 72 	mov    $0x44203a726f727245,%rax
  402060:	3a 20 44 
  402063:	48 ba 4e 53 20 69 73 	mov    $0x6e7520736920534e,%rdx
  40206a:	20 75 6e 
  40206d:	49 89 07             	mov    %rax,(%r15)
  402070:	49 89 57 08          	mov    %rdx,0x8(%r15)
  402074:	48 b8 61 62 6c 65 20 	mov    $0x206f7420656c6261,%rax
  40207b:	74 6f 20 
  40207e:	48 ba 72 65 73 6f 6c 	mov    $0x2065766c6f736572,%rdx
  402085:	76 65 20 
  402088:	49 89 47 10          	mov    %rax,0x10(%r15)
  40208c:	49 89 57 18          	mov    %rdx,0x18(%r15)
  402090:	48 b8 73 65 72 76 65 	mov    $0x6120726576726573,%rax
  402097:	72 20 61 
  40209a:	49 89 47 20          	mov    %rax,0x20(%r15)
  40209e:	41 c7 47 28 64 64 72 	movl   $0x65726464,0x28(%r15)
  4020a5:	65 
  4020a6:	66 41 c7 47 2c 73 73 	movw   $0x7373,0x2c(%r15)
  4020ad:	41 c6 47 2e 00       	movb   $0x0,0x2e(%r15)
  4020b2:	44 89 e7             	mov    %r12d,%edi
  4020b5:	e8 e6 ea ff ff       	callq  400ba0 <close@plt>
  4020ba:	b8 ff ff ff ff       	mov    $0xffffffff,%eax
  4020bf:	e9 98 02 00 00       	jmpq   40235c <submitr+0x4e3>
  4020c4:	48 b8 45 72 72 6f 72 	mov    $0x55203a726f727245,%rax
  4020cb:	3a 20 55 
  4020ce:	48 ba 6e 61 62 6c 65 	mov    $0x6f7420656c62616e,%rdx
  4020d5:	20 74 6f 
  4020d8:	49 89 07             	mov    %rax,(%r15)
  4020db:	49 89 57 08          	mov    %rdx,0x8(%r15)
  4020df:	48 b8 20 63 6f 6e 6e 	mov    $0x7463656e6e6f6320,%rax
  4020e6:	65 63 74 
  4020e9:	48 ba 20 74 6f 20 74 	mov    $0x20656874206f7420,%rdx
  4020f0:	68 65 20 
  4020f3:	49 89 47 10          	mov    %rax,0x10(%r15)
  4020f7:	49 89 57 18          	mov    %rdx,0x18(%r15)
  4020fb:	41 c7 47 20 73 65 72 	movl   $0x76726573,0x20(%r15)
  402102:	76 
  402103:	66 41 c7 47 24 65 72 	movw   $0x7265,0x24(%r15)
  40210a:	41 c6 47 26 00       	movb   $0x0,0x26(%r15)
  40210f:	44 89 e7             	mov    %r12d,%edi
  402112:	e8 89 ea ff ff       	callq  400ba0 <close@plt>
  402117:	b8 ff ff ff ff       	mov    $0xffffffff,%eax
  40211c:	e9 3b 02 00 00       	jmpq   40235c <submitr+0x4e3>
  402121:	48 b8 45 72 72 6f 72 	mov    $0x52203a726f727245,%rax
  402128:	3a 20 52 
  40212b:	48 ba 65 73 75 6c 74 	mov    $0x747320746c757365,%rdx
  402132:	20 73 74 
  402135:	49 89 07             	mov    %rax,(%r15)
  402138:	49 89 57 08          	mov    %rdx,0x8(%r15)
  40213c:	48 b8 72 69 6e 67 20 	mov    $0x6f6f7420676e6972,%rax
  402143:	74 6f 6f 
  402146:	48 ba 20 6c 61 72 67 	mov    $0x202e656772616c20,%rdx
  40214d:	65 2e 20 
  402150:	49 89 47 10          	mov    %rax,0x10(%r15)
  402154:	49 89 57 18          	mov    %rdx,0x18(%r15)
  402158:	48 b8 49 6e 63 72 65 	mov    $0x6573616572636e49,%rax
  40215f:	61 73 65 
  402162:	48 ba 20 53 55 42 4d 	mov    $0x5254494d42555320,%rdx
  402169:	49 54 52 
  40216c:	49 89 47 20          	mov    %rax,0x20(%r15)
  402170:	49 89 57 28          	mov    %rdx,0x28(%r15)
  402174:	48 b8 5f 4d 41 58 42 	mov    $0x46554258414d5f,%rax
  40217b:	55 46 00 
  40217e:	49 89 47 30          	mov    %rax,0x30(%r15)
  402182:	44 89 e7             	mov    %r12d,%edi
  402185:	e8 16 ea ff ff       	callq  400ba0 <close@plt>
  40218a:	b8 ff ff ff ff       	mov    $0xffffffff,%eax
  40218f:	e9 c8 01 00 00       	jmpq   40235c <submitr+0x4e3>
  402194:	49 0f a3 c5          	bt     %rax,%r13
  402198:	73 1e                	jae    4021b8 <submitr+0x33f>
  40219a:	88 55 00             	mov    %dl,0x0(%rbp)
  40219d:	48 8d 6d 01          	lea    0x1(%rbp),%rbp
  4021a1:	48 83 c3 01          	add    $0x1,%rbx
  4021a5:	49 39 de             	cmp    %rbx,%r14
  4021a8:	0f 84 86 03 00 00    	je     402534 <submitr+0x6bb>
  4021ae:	0f b6 13             	movzbl (%rbx),%edx
  4021b1:	8d 42 d6             	lea    -0x2a(%rdx),%eax
  4021b4:	3c 35                	cmp    $0x35,%al
  4021b6:	76 dc                	jbe    402194 <submitr+0x31b>
  4021b8:	89 d0                	mov    %edx,%eax
  4021ba:	83 e0 df             	and    $0xffffffffffffffdf,%eax
  4021bd:	83 e8 41             	sub    $0x41,%eax
  4021c0:	3c 19                	cmp    $0x19,%al
  4021c2:	76 d6                	jbe    40219a <submitr+0x321>
  4021c4:	80 fa 20             	cmp    $0x20,%dl
  4021c7:	74 45                	je     40220e <submitr+0x395>
  4021c9:	8d 42 e0             	lea    -0x20(%rdx),%eax
  4021cc:	3c 5f                	cmp    $0x5f,%al
  4021ce:	76 09                	jbe    4021d9 <submitr+0x360>
  4021d0:	80 fa 09             	cmp    $0x9,%dl
  4021d3:	0f 85 ce 02 00 00    	jne    4024a7 <submitr+0x62e>
  4021d9:	0f b6 d2             	movzbl %dl,%edx
  4021dc:	be f0 33 40 00       	mov    $0x4033f0,%esi
  4021e1:	48 8d 7c 24 28       	lea    0x28(%rsp),%rdi
  4021e6:	b8 00 00 00 00       	mov    $0x0,%eax
  4021eb:	e8 80 ea ff ff       	callq  400c70 <sprintf@plt>
  4021f0:	0f b6 44 24 28       	movzbl 0x28(%rsp),%eax
  4021f5:	88 45 00             	mov    %al,0x0(%rbp)
  4021f8:	0f b6 44 24 29       	movzbl 0x29(%rsp),%eax
  4021fd:	88 45 01             	mov    %al,0x1(%rbp)
  402200:	0f b6 44 24 2a       	movzbl 0x2a(%rsp),%eax
  402205:	88 45 02             	mov    %al,0x2(%rbp)
  402208:	48 8d 6d 03          	lea    0x3(%rbp),%rbp
  40220c:	eb 93                	jmp    4021a1 <submitr+0x328>
  40220e:	c6 45 00 2b          	movb   $0x2b,0x0(%rbp)
  402212:	48 8d 6d 01          	lea    0x1(%rbp),%rbp
  402216:	eb 89                	jmp    4021a1 <submitr+0x328>
  402218:	48 01 c5             	add    %rax,%rbp
  40221b:	48 29 c3             	sub    %rax,%rbx
  40221e:	0f 84 84 03 00 00    	je     4025a8 <submitr+0x72f>
  402224:	48 89 da             	mov    %rbx,%rdx
  402227:	48 89 ee             	mov    %rbp,%rsi
  40222a:	44 89 e7             	mov    %r12d,%edi
  40222d:	e8 3e e9 ff ff       	callq  400b70 <write@plt>
  402232:	48 85 c0             	test   %rax,%rax
  402235:	7f e1                	jg     402218 <submitr+0x39f>
  402237:	e8 04 e9 ff ff       	callq  400b40 <__errno_location@plt>
  40223c:	83 38 04             	cmpl   $0x4,(%rax)
  40223f:	0f 85 03 02 00 00    	jne    402448 <submitr+0x5cf>
  402245:	4c 89 e8             	mov    %r13,%rax
  402248:	eb ce                	jmp    402218 <submitr+0x39f>
  40224a:	48 b8 45 72 72 6f 72 	mov    $0x43203a726f727245,%rax
  402251:	3a 20 43 
  402254:	48 ba 6c 69 65 6e 74 	mov    $0x6e7520746e65696c,%rdx
  40225b:	20 75 6e 
  40225e:	49 89 07             	mov    %rax,(%r15)
  402261:	49 89 57 08          	mov    %rdx,0x8(%r15)
  402265:	48 b8 61 62 6c 65 20 	mov    $0x206f7420656c6261,%rax
  40226c:	74 6f 20 
  40226f:	48 ba 72 65 61 64 20 	mov    $0x7269662064616572,%rdx
  402276:	66 69 72 
  402279:	49 89 47 10          	mov    %rax,0x10(%r15)
  40227d:	49 89 57 18          	mov    %rdx,0x18(%r15)
  402281:	48 b8 73 74 20 68 65 	mov    $0x6564616568207473,%rax
  402288:	61 64 65 
  40228b:	48 ba 72 20 66 72 6f 	mov    $0x73206d6f72662072,%rdx
  402292:	6d 20 73 
  402295:	49 89 47 20          	mov    %rax,0x20(%r15)
  402299:	49 89 57 28          	mov    %rdx,0x28(%r15)
  40229d:	41 c7 47 30 65 72 76 	movl   $0x65767265,0x30(%r15)
  4022a4:	65 
  4022a5:	66 41 c7 47 34 72 00 	movw   $0x72,0x34(%r15)
  4022ac:	44 89 e7             	mov    %r12d,%edi
  4022af:	e8 ec e8 ff ff       	callq  400ba0 <close@plt>
  4022b4:	b8 ff ff ff ff       	mov    $0xffffffff,%eax
  4022b9:	e9 9e 00 00 00       	jmpq   40235c <submitr+0x4e3>
  4022be:	ba 00 20 00 00       	mov    $0x2000,%edx
  4022c3:	48 8d b4 24 40 60 00 	lea    0x6040(%rsp),%rsi
  4022ca:	00 
  4022cb:	48 8d bc 24 40 80 00 	lea    0x8040(%rsp),%rdi
  4022d2:	00 
  4022d3:	e8 de fa ff ff       	callq  401db6 <rio_readlineb>
  4022d8:	48 85 c0             	test   %rax,%rax
  4022db:	0f 8e 8d 00 00 00    	jle    40236e <submitr+0x4f5>
  4022e1:	80 bc 24 40 60 00 00 	cmpb   $0xd,0x6040(%rsp)
  4022e8:	0d 
  4022e9:	75 d3                	jne    4022be <submitr+0x445>
  4022eb:	80 bc 24 41 60 00 00 	cmpb   $0xa,0x6041(%rsp)
  4022f2:	0a 
  4022f3:	75 c9                	jne    4022be <submitr+0x445>
  4022f5:	80 bc 24 42 60 00 00 	cmpb   $0x0,0x6042(%rsp)
  4022fc:	00 
  4022fd:	75 bf                	jne    4022be <submitr+0x445>
  4022ff:	ba 00 20 00 00       	mov    $0x2000,%edx
  402304:	48 8d b4 24 40 60 00 	lea    0x6040(%rsp),%rsi
  40230b:	00 
  40230c:	48 8d bc 24 40 80 00 	lea    0x8040(%rsp),%rdi
  402313:	00 
  402314:	e8 9d fa ff ff       	callq  401db6 <rio_readlineb>
  402319:	48 85 c0             	test   %rax,%rax
  40231c:	0f 8e b3 00 00 00    	jle    4023d5 <submitr+0x55c>
  402322:	48 8d b4 24 40 60 00 	lea    0x6040(%rsp),%rsi
  402329:	00 
  40232a:	4c 89 ff             	mov    %r15,%rdi
  40232d:	e8 1e e8 ff ff       	callq  400b50 <strcpy@plt>
  402332:	44 89 e7             	mov    %r12d,%edi
  402335:	e8 66 e8 ff ff       	callq  400ba0 <close@plt>
  40233a:	41 0f b6 07          	movzbl (%r15),%eax
  40233e:	83 e8 4f             	sub    $0x4f,%eax
  402341:	75 0f                	jne    402352 <submitr+0x4d9>
  402343:	41 0f b6 47 01       	movzbl 0x1(%r15),%eax
  402348:	83 e8 4b             	sub    $0x4b,%eax
  40234b:	75 05                	jne    402352 <submitr+0x4d9>
  40234d:	41 0f b6 47 02       	movzbl 0x2(%r15),%eax
  402352:	85 c0                	test   %eax,%eax
  402354:	0f 95 c0             	setne  %al
  402357:	0f b6 c0             	movzbl %al,%eax
  40235a:	f7 d8                	neg    %eax
  40235c:	48 81 c4 68 a0 00 00 	add    $0xa068,%rsp
  402363:	5b                   	pop    %rbx
  402364:	5d                   	pop    %rbp
  402365:	41 5c                	pop    %r12
  402367:	41 5d                	pop    %r13
  402369:	41 5e                	pop    %r14
  40236b:	41 5f                	pop    %r15
  40236d:	c3                   	retq   
  40236e:	48 b8 45 72 72 6f 72 	mov    $0x43203a726f727245,%rax
  402375:	3a 20 43 
  402378:	48 ba 6c 69 65 6e 74 	mov    $0x6e7520746e65696c,%rdx
  40237f:	20 75 6e 
  402382:	49 89 07             	mov    %rax,(%r15)
  402385:	49 89 57 08          	mov    %rdx,0x8(%r15)
  402389:	48 b8 61 62 6c 65 20 	mov    $0x206f7420656c6261,%rax
  402390:	74 6f 20 
  402393:	48 ba 72 65 61 64 20 	mov    $0x6165682064616572,%rdx
  40239a:	68 65 61 
  40239d:	49 89 47 10          	mov    %rax,0x10(%r15)
  4023a1:	49 89 57 18          	mov    %rdx,0x18(%r15)
  4023a5:	48 b8 64 65 72 73 20 	mov    $0x6f72662073726564,%rax
  4023ac:	66 72 6f 
  4023af:	48 ba 6d 20 73 65 72 	mov    $0x726576726573206d,%rdx
  4023b6:	76 65 72 
  4023b9:	49 89 47 20          	mov    %rax,0x20(%r15)
  4023bd:	49 89 57 28          	mov    %rdx,0x28(%r15)
  4023c1:	41 c6 47 30 00       	movb   $0x0,0x30(%r15)
  4023c6:	44 89 e7             	mov    %r12d,%edi
  4023c9:	e8 d2 e7 ff ff       	callq  400ba0 <close@plt>
  4023ce:	b8 ff ff ff ff       	mov    $0xffffffff,%eax
  4023d3:	eb 87                	jmp    40235c <submitr+0x4e3>
  4023d5:	48 b8 45 72 72 6f 72 	mov    $0x43203a726f727245,%rax
  4023dc:	3a 20 43 
  4023df:	48 ba 6c 69 65 6e 74 	mov    $0x6e7520746e65696c,%rdx
  4023e6:	20 75 6e 
  4023e9:	49 89 07             	mov    %rax,(%r15)
  4023ec:	49 89 57 08          	mov    %rdx,0x8(%r15)
  4023f0:	48 b8 61 62 6c 65 20 	mov    $0x206f7420656c6261,%rax
  4023f7:	74 6f 20 
  4023fa:	48 ba 72 65 61 64 20 	mov    $0x6174732064616572,%rdx
  402401:	73 74 61 
  402404:	49 89 47 10          	mov    %rax,0x10(%r15)
  402408:	49 89 57 18          	mov    %rdx,0x18(%r15)
  40240c:	48 b8 74 75 73 20 6d 	mov    $0x7373656d20737574,%rax
  402413:	65 73 73 
  402416:	48 ba 61 67 65 20 66 	mov    $0x6d6f726620656761,%rdx
  40241d:	72 6f 6d 
  402420:	49 89 47 20          	mov    %rax,0x20(%r15)
  402424:	49 89 57 28          	mov    %rdx,0x28(%r15)
  402428:	48 b8 20 73 65 72 76 	mov    $0x72657672657320,%rax
  40242f:	65 72 00 
  402432:	49 89 47 30          	mov    %rax,0x30(%r15)
  402436:	44 89 e7             	mov    %r12d,%edi
  402439:	e8 62 e7 ff ff       	callq  400ba0 <close@plt>
  40243e:	b8 ff ff ff ff       	mov    $0xffffffff,%eax
  402443:	e9 14 ff ff ff       	jmpq   40235c <submitr+0x4e3>
  402448:	48 b8 45 72 72 6f 72 	mov    $0x43203a726f727245,%rax
  40244f:	3a 20 43 
  402452:	48 ba 6c 69 65 6e 74 	mov    $0x6e7520746e65696c,%rdx
  402459:	20 75 6e 
  40245c:	49 89 07             	mov    %rax,(%r15)
  40245f:	49 89 57 08          	mov    %rdx,0x8(%r15)
  402463:	48 b8 61 62 6c 65 20 	mov    $0x206f7420656c6261,%rax
  40246a:	74 6f 20 
  40246d:	48 ba 77 72 69 74 65 	mov    $0x6f74206574697277,%rdx
  402474:	20 74 6f 
  402477:	49 89 47 10          	mov    %rax,0x10(%r15)
  40247b:	49 89 57 18          	mov    %rdx,0x18(%r15)
  40247f:	48 b8 20 74 68 65 20 	mov    $0x7265732065687420,%rax
  402486:	73 65 72 
  402489:	49 89 47 20          	mov    %rax,0x20(%r15)
  40248d:	41 c7 47 28 76 65 72 	movl   $0x726576,0x28(%r15)
  402494:	00 
  402495:	44 89 e7             	mov    %r12d,%edi
  402498:	e8 03 e7 ff ff       	callq  400ba0 <close@plt>
  40249d:	b8 ff ff ff ff       	mov    $0xffffffff,%eax
  4024a2:	e9 b5 fe ff ff       	jmpq   40235c <submitr+0x4e3>
  4024a7:	48 b8 45 72 72 6f 72 	mov    $0x52203a726f727245,%rax
  4024ae:	3a 20 52 
  4024b1:	48 ba 65 73 75 6c 74 	mov    $0x747320746c757365,%rdx
  4024b8:	20 73 74 
  4024bb:	49 89 07             	mov    %rax,(%r15)
  4024be:	49 89 57 08          	mov    %rdx,0x8(%r15)
  4024c2:	48 b8 72 69 6e 67 20 	mov    $0x6e6f6320676e6972,%rax
  4024c9:	63 6f 6e 
  4024cc:	48 ba 74 61 69 6e 73 	mov    $0x6e6120736e696174,%rdx
  4024d3:	20 61 6e 
  4024d6:	49 89 47 10          	mov    %rax,0x10(%r15)
  4024da:	49 89 57 18          	mov    %rdx,0x18(%r15)
  4024de:	48 b8 20 69 6c 6c 65 	mov    $0x6c6167656c6c6920,%rax
  4024e5:	67 61 6c 
  4024e8:	48 ba 20 6f 72 20 75 	mov    $0x72706e7520726f20,%rdx
  4024ef:	6e 70 72 
  4024f2:	49 89 47 20          	mov    %rax,0x20(%r15)
  4024f6:	49 89 57 28          	mov    %rdx,0x28(%r15)
  4024fa:	48 b8 69 6e 74 61 62 	mov    $0x20656c6261746e69,%rax
  402501:	6c 65 20 
  402504:	48 ba 63 68 61 72 61 	mov    $0x6574636172616863,%rdx
  40250b:	63 74 65 
  40250e:	49 89 47 30          	mov    %rax,0x30(%r15)
  402512:	49 89 57 38          	mov    %rdx,0x38(%r15)
  402516:	66 41 c7 47 40 72 2e 	movw   $0x2e72,0x40(%r15)
  40251d:	41 c6 47 42 00       	movb   $0x0,0x42(%r15)
  402522:	44 89 e7             	mov    %r12d,%edi
  402525:	e8 76 e6 ff ff       	callq  400ba0 <close@plt>
  40252a:	b8 ff ff ff ff       	mov    $0xffffffff,%eax
  40252f:	e9 28 fe ff ff       	jmpq   40235c <submitr+0x4e3>
  402534:	48 8d 9c 24 40 60 00 	lea    0x6040(%rsp),%rbx
  40253b:	00 
  40253c:	48 83 ec 08          	sub    $0x8,%rsp
  402540:	48 8d 84 24 48 40 00 	lea    0x4048(%rsp),%rax
  402547:	00 
  402548:	50                   	push   %rax
  402549:	4c 8b 4c 24 20       	mov    0x20(%rsp),%r9
  40254e:	4c 8b 44 24 28       	mov    0x28(%rsp),%r8
  402553:	48 8b 4c 24 18       	mov    0x18(%rsp),%rcx
  402558:	48 8b 54 24 10       	mov    0x10(%rsp),%rdx
  40255d:	be 70 33 40 00       	mov    $0x403370,%esi
  402562:	48 89 df             	mov    %rbx,%rdi
  402565:	b8 00 00 00 00       	mov    $0x0,%eax
  40256a:	e8 01 e7 ff ff       	callq  400c70 <sprintf@plt>
  40256f:	48 c7 c1 ff ff ff ff 	mov    $0xffffffffffffffff,%rcx
  402576:	b8 00 00 00 00       	mov    $0x0,%eax
  40257b:	48 89 df             	mov    %rbx,%rdi
  40257e:	f2 ae                	repnz scas %es:(%rdi),%al
  402580:	48 89 ce             	mov    %rcx,%rsi
  402583:	48 f7 d6             	not    %rsi
  402586:	48 89 f1             	mov    %rsi,%rcx
  402589:	48 83 c4 10          	add    $0x10,%rsp
  40258d:	48 8d ac 24 40 60 00 	lea    0x6040(%rsp),%rbp
  402594:	00 
  402595:	41 bd 00 00 00 00    	mov    $0x0,%r13d
  40259b:	48 83 e9 01          	sub    $0x1,%rcx
  40259f:	48 89 cb             	mov    %rcx,%rbx
  4025a2:	0f 85 7c fc ff ff    	jne    402224 <submitr+0x3ab>
  4025a8:	44 89 a4 24 40 80 00 	mov    %r12d,0x8040(%rsp)
  4025af:	00 
  4025b0:	c7 84 24 44 80 00 00 	movl   $0x0,0x8044(%rsp)
  4025b7:	00 00 00 00 
  4025bb:	48 8d 84 24 50 80 00 	lea    0x8050(%rsp),%rax
  4025c2:	00 
  4025c3:	48 89 84 24 48 80 00 	mov    %rax,0x8048(%rsp)
  4025ca:	00 
  4025cb:	ba 00 20 00 00       	mov    $0x2000,%edx
  4025d0:	48 8d b4 24 40 60 00 	lea    0x6040(%rsp),%rsi
  4025d7:	00 
  4025d8:	48 8d bc 24 40 80 00 	lea    0x8040(%rsp),%rdi
  4025df:	00 
  4025e0:	e8 d1 f7 ff ff       	callq  401db6 <rio_readlineb>
  4025e5:	48 85 c0             	test   %rax,%rax
  4025e8:	0f 8e 5c fc ff ff    	jle    40224a <submitr+0x3d1>
  4025ee:	4c 8d 44 24 30       	lea    0x30(%rsp),%r8
  4025f3:	48 8d 8c 24 3c 20 00 	lea    0x203c(%rsp),%rcx
  4025fa:	00 
  4025fb:	48 8d 94 24 40 20 00 	lea    0x2040(%rsp),%rdx
  402602:	00 
  402603:	be f7 33 40 00       	mov    $0x4033f7,%esi
  402608:	48 8d bc 24 40 60 00 	lea    0x6040(%rsp),%rdi
  40260f:	00 
  402610:	b8 00 00 00 00       	mov    $0x0,%eax
  402615:	e8 16 e6 ff ff       	callq  400c30 <__isoc99_sscanf@plt>
  40261a:	8b 94 24 3c 20 00 00 	mov    0x203c(%rsp),%edx
  402621:	81 fa c8 00 00 00    	cmp    $0xc8,%edx
  402627:	0f 84 b4 fc ff ff    	je     4022e1 <submitr+0x468>
  40262d:	48 8d 4c 24 30       	lea    0x30(%rsp),%rcx
  402632:	be 40 33 40 00       	mov    $0x403340,%esi
  402637:	4c 89 ff             	mov    %r15,%rdi
  40263a:	b8 00 00 00 00       	mov    $0x0,%eax
  40263f:	e8 2c e6 ff ff       	callq  400c70 <sprintf@plt>
  402644:	44 89 e7             	mov    %r12d,%edi
  402647:	e8 54 e5 ff ff       	callq  400ba0 <close@plt>
  40264c:	b8 ff ff ff ff       	mov    $0xffffffff,%eax
  402651:	e9 06 fd ff ff       	jmpq   40235c <submitr+0x4e3>

0000000000402656 <init_timeout>:
  402656:	85 ff                	test   %edi,%edi
  402658:	74 23                	je     40267d <init_timeout+0x27>
  40265a:	53                   	push   %rbx
  40265b:	89 fb                	mov    %edi,%ebx
  40265d:	be 8d 1d 40 00       	mov    $0x401d8d,%esi
  402662:	bf 0e 00 00 00       	mov    $0xe,%edi
  402667:	e8 74 e5 ff ff       	callq  400be0 <signal@plt>
  40266c:	85 db                	test   %ebx,%ebx
  40266e:	bf 00 00 00 00       	mov    $0x0,%edi
  402673:	0f 49 fb             	cmovns %ebx,%edi
  402676:	e8 15 e5 ff ff       	callq  400b90 <alarm@plt>
  40267b:	5b                   	pop    %rbx
  40267c:	c3                   	retq   
  40267d:	c3                   	retq   

000000000040267e <init_driver>:
  40267e:	55                   	push   %rbp
  40267f:	53                   	push   %rbx
  402680:	48 83 ec 18          	sub    $0x18,%rsp
  402684:	48 89 fd             	mov    %rdi,%rbp
  402687:	be 01 00 00 00       	mov    $0x1,%esi
  40268c:	bf 0d 00 00 00       	mov    $0xd,%edi
  402691:	e8 4a e5 ff ff       	callq  400be0 <signal@plt>
  402696:	be 01 00 00 00       	mov    $0x1,%esi
  40269b:	bf 1d 00 00 00       	mov    $0x1d,%edi
  4026a0:	e8 3b e5 ff ff       	callq  400be0 <signal@plt>
  4026a5:	be 01 00 00 00       	mov    $0x1,%esi
  4026aa:	bf 1d 00 00 00       	mov    $0x1d,%edi
  4026af:	e8 2c e5 ff ff       	callq  400be0 <signal@plt>
  4026b4:	ba 00 00 00 00       	mov    $0x0,%edx
  4026b9:	be 01 00 00 00       	mov    $0x1,%esi
  4026be:	bf 02 00 00 00       	mov    $0x2,%edi
  4026c3:	e8 f8 e5 ff ff       	callq  400cc0 <socket@plt>
  4026c8:	85 c0                	test   %eax,%eax
  4026ca:	0f 88 83 00 00 00    	js     402753 <init_driver+0xd5>
  4026d0:	89 c3                	mov    %eax,%ebx
  4026d2:	bf 66 32 40 00       	mov    $0x403266,%edi
  4026d7:	e8 14 e5 ff ff       	callq  400bf0 <gethostbyname@plt>
  4026dc:	48 85 c0             	test   %rax,%rax
  4026df:	0f 84 ba 00 00 00    	je     40279f <init_driver+0x121>
  4026e5:	48 c7 44 24 02 00 00 	movq   $0x0,0x2(%rsp)
  4026ec:	00 00 
  4026ee:	c7 44 24 0a 00 00 00 	movl   $0x0,0xa(%rsp)
  4026f5:	00 
  4026f6:	66 c7 44 24 0e 00 00 	movw   $0x0,0xe(%rsp)
  4026fd:	66 c7 04 24 02 00    	movw   $0x2,(%rsp)
  402703:	48 63 50 14          	movslq 0x14(%rax),%rdx
  402707:	48 8b 40 18          	mov    0x18(%rax),%rax
  40270b:	48 8d 7c 24 04       	lea    0x4(%rsp),%rdi
  402710:	48 8b 30             	mov    (%rax),%rsi
  402713:	e8 28 e5 ff ff       	callq  400c40 <memmove@plt>
  402718:	66 c7 44 24 02 3b 6e 	movw   $0x6e3b,0x2(%rsp)
  40271f:	ba 10 00 00 00       	mov    $0x10,%edx
  402724:	48 89 e6             	mov    %rsp,%rsi
  402727:	89 df                	mov    %ebx,%edi
  402729:	e8 62 e5 ff ff       	callq  400c90 <connect@plt>
  40272e:	85 c0                	test   %eax,%eax
  402730:	0f 88 d1 00 00 00    	js     402807 <init_driver+0x189>
  402736:	89 df                	mov    %ebx,%edi
  402738:	e8 63 e4 ff ff       	callq  400ba0 <close@plt>
  40273d:	66 c7 45 00 4f 4b    	movw   $0x4b4f,0x0(%rbp)
  402743:	c6 45 02 00          	movb   $0x0,0x2(%rbp)
  402747:	b8 00 00 00 00       	mov    $0x0,%eax
  40274c:	48 83 c4 18          	add    $0x18,%rsp
  402750:	5b                   	pop    %rbx
  402751:	5d                   	pop    %rbp
  402752:	c3                   	retq   
  402753:	48 b8 45 72 72 6f 72 	mov    $0x43203a726f727245,%rax
  40275a:	3a 20 43 
  40275d:	48 ba 6c 69 65 6e 74 	mov    $0x6e7520746e65696c,%rdx
  402764:	20 75 6e 
  402767:	48 89 45 00          	mov    %rax,0x0(%rbp)
  40276b:	48 89 55 08          	mov    %rdx,0x8(%rbp)
  40276f:	48 b8 61 62 6c 65 20 	mov    $0x206f7420656c6261,%rax
  402776:	74 6f 20 
  402779:	48 ba 63 72 65 61 74 	mov    $0x7320657461657263,%rdx
  402780:	65 20 73 
  402783:	48 89 45 10          	mov    %rax,0x10(%rbp)
  402787:	48 89 55 18          	mov    %rdx,0x18(%rbp)
  40278b:	c7 45 20 6f 63 6b 65 	movl   $0x656b636f,0x20(%rbp)
  402792:	66 c7 45 24 74 00    	movw   $0x74,0x24(%rbp)
  402798:	b8 ff ff ff ff       	mov    $0xffffffff,%eax
  40279d:	eb ad                	jmp    40274c <init_driver+0xce>
  40279f:	48 b8 45 72 72 6f 72 	mov    $0x44203a726f727245,%rax
  4027a6:	3a 20 44 
  4027a9:	48 ba 4e 53 20 69 73 	mov    $0x6e7520736920534e,%rdx
  4027b0:	20 75 6e 
  4027b3:	48 89 45 00          	mov    %rax,0x0(%rbp)
  4027b7:	48 89 55 08          	mov    %rdx,0x8(%rbp)
  4027bb:	48 b8 61 62 6c 65 20 	mov    $0x206f7420656c6261,%rax
  4027c2:	74 6f 20 
  4027c5:	48 ba 72 65 73 6f 6c 	mov    $0x2065766c6f736572,%rdx
  4027cc:	76 65 20 
  4027cf:	48 89 45 10          	mov    %rax,0x10(%rbp)
  4027d3:	48 89 55 18          	mov    %rdx,0x18(%rbp)
  4027d7:	48 b8 73 65 72 76 65 	mov    $0x6120726576726573,%rax
  4027de:	72 20 61 
  4027e1:	48 89 45 20          	mov    %rax,0x20(%rbp)
  4027e5:	c7 45 28 64 64 72 65 	movl   $0x65726464,0x28(%rbp)
  4027ec:	66 c7 45 2c 73 73    	movw   $0x7373,0x2c(%rbp)
  4027f2:	c6 45 2e 00          	movb   $0x0,0x2e(%rbp)
  4027f6:	89 df                	mov    %ebx,%edi
  4027f8:	e8 a3 e3 ff ff       	callq  400ba0 <close@plt>
  4027fd:	b8 ff ff ff ff       	mov    $0xffffffff,%eax
  402802:	e9 45 ff ff ff       	jmpq   40274c <init_driver+0xce>
  402807:	ba 66 32 40 00       	mov    $0x403266,%edx
  40280c:	be c8 33 40 00       	mov    $0x4033c8,%esi
  402811:	48 89 ef             	mov    %rbp,%rdi
  402814:	b8 00 00 00 00       	mov    $0x0,%eax
  402819:	e8 52 e4 ff ff       	callq  400c70 <sprintf@plt>
  40281e:	89 df                	mov    %ebx,%edi
  402820:	e8 7b e3 ff ff       	callq  400ba0 <close@plt>
  402825:	b8 ff ff ff ff       	mov    $0xffffffff,%eax
  40282a:	e9 1d ff ff ff       	jmpq   40274c <init_driver+0xce>

000000000040282f <driver_post>:
  40282f:	53                   	push   %rbx
  402830:	4c 89 c3             	mov    %r8,%rbx
  402833:	85 c9                	test   %ecx,%ecx
  402835:	75 17                	jne    40284e <driver_post+0x1f>
  402837:	48 85 ff             	test   %rdi,%rdi
  40283a:	74 05                	je     402841 <driver_post+0x12>
  40283c:	80 3f 00             	cmpb   $0x0,(%rdi)
  40283f:	75 2f                	jne    402870 <driver_post+0x41>
  402841:	66 c7 03 4f 4b       	movw   $0x4b4f,(%rbx)
  402846:	c6 43 02 00          	movb   $0x0,0x2(%rbx)
  40284a:	89 c8                	mov    %ecx,%eax
  40284c:	5b                   	pop    %rbx
  40284d:	c3                   	retq   
  40284e:	48 89 d6             	mov    %rdx,%rsi
  402851:	bf 08 34 40 00       	mov    $0x403408,%edi
  402856:	b8 00 00 00 00       	mov    $0x0,%eax
  40285b:	e8 20 e3 ff ff       	callq  400b80 <printf@plt>
  402860:	66 c7 03 4f 4b       	movw   $0x4b4f,(%rbx)
  402865:	c6 43 02 00          	movb   $0x0,0x2(%rbx)
  402869:	b8 00 00 00 00       	mov    $0x0,%eax
  40286e:	eb dc                	jmp    40284c <driver_post+0x1d>
  402870:	41 50                	push   %r8
  402872:	52                   	push   %rdx
  402873:	41 b9 1f 34 40 00    	mov    $0x40341f,%r9d
  402879:	49 89 f0             	mov    %rsi,%r8
  40287c:	48 89 f9             	mov    %rdi,%rcx
  40287f:	ba 23 34 40 00       	mov    $0x403423,%edx
  402884:	be 6e 3b 00 00       	mov    $0x3b6e,%esi
  402889:	bf 66 32 40 00       	mov    $0x403266,%edi
  40288e:	e8 e6 f5 ff ff       	callq  401e79 <submitr>
  402893:	48 83 c4 10          	add    $0x10,%rsp
  402897:	eb b3                	jmp    40284c <driver_post+0x1d>
  402899:	0f 1f 80 00 00 00 00 	nopl   0x0(%rax)

00000000004028a0 <__libc_csu_init>:
  4028a0:	41 57                	push   %r15
  4028a2:	41 89 ff             	mov    %edi,%r15d
  4028a5:	41 56                	push   %r14
  4028a7:	49 89 f6             	mov    %rsi,%r14
  4028aa:	41 55                	push   %r13
  4028ac:	49 89 d5             	mov    %rdx,%r13
  4028af:	41 54                	push   %r12
  4028b1:	4c 8d 25 60 15 20 00 	lea    0x201560(%rip),%r12        # 603e18 <__frame_dummy_init_array_entry>
  4028b8:	55                   	push   %rbp
  4028b9:	48 8d 2d 60 15 20 00 	lea    0x201560(%rip),%rbp        # 603e20 <__init_array_end>
  4028c0:	53                   	push   %rbx
  4028c1:	4c 29 e5             	sub    %r12,%rbp
  4028c4:	31 db                	xor    %ebx,%ebx
  4028c6:	48 c1 fd 03          	sar    $0x3,%rbp
  4028ca:	48 83 ec 08          	sub    $0x8,%rsp
  4028ce:	e8 15 e2 ff ff       	callq  400ae8 <_init>
  4028d3:	48 85 ed             	test   %rbp,%rbp
  4028d6:	74 1e                	je     4028f6 <__libc_csu_init+0x56>
  4028d8:	0f 1f 84 00 00 00 00 	nopl   0x0(%rax,%rax,1)
  4028df:	00 
  4028e0:	4c 89 ea             	mov    %r13,%rdx
  4028e3:	4c 89 f6             	mov    %r14,%rsi
  4028e6:	44 89 ff             	mov    %r15d,%edi
  4028e9:	41 ff 14 dc          	callq  *(%r12,%rbx,8)
  4028ed:	48 83 c3 01          	add    $0x1,%rbx
  4028f1:	48 39 eb             	cmp    %rbp,%rbx
  4028f4:	75 ea                	jne    4028e0 <__libc_csu_init+0x40>
  4028f6:	48 83 c4 08          	add    $0x8,%rsp
  4028fa:	5b                   	pop    %rbx
  4028fb:	5d                   	pop    %rbp
  4028fc:	41 5c                	pop    %r12
  4028fe:	41 5d                	pop    %r13
  402900:	41 5e                	pop    %r14
  402902:	41 5f                	pop    %r15
  402904:	c3                   	retq   
  402905:	90                   	nop
  402906:	66 2e 0f 1f 84 00 00 	nopw   %cs:0x0(%rax,%rax,1)
  40290d:	00 00 00 

0000000000402910 <__libc_csu_fini>:
  402910:	f3 c3                	repz retq 

Disassembly of section .fini:

0000000000402914 <_fini>:
  402914:	48 83 ec 08          	sub    $0x8,%rsp
  402918:	48 83 c4 08          	add    $0x8,%rsp
  40291c:	c3                   	retq   
